---
triple:          'arm64-apple-darwin'
binary-path:     '/Users/soyeon/Git/cpp/DongBinNa/sort2'
relocations:
  - { offsetInCU: 0x4CD2, offset: 0x4CD2, size: 0x8, addend: 0x0, symName: __ZNSt3__111__sift_downB7v160006INS_17_ClassicAlgPolicyERPFbNS_4pairINS_12basic_stringIcNS_11char_traitsIcEENS_9allocatorIcEEEENS2_IiiEEEESA_ENS_11__wrap_iterIPSA_EEEEvT1_OT0_NS_15iterator_traitsISH_E15difference_typeESH_, symObjAddr: 0x3028, symBinAddr: 0x100006124, symSize: 0x614 }
  - { offsetInCU: 0x4DB2, offset: 0x4DB2, size: 0x8, addend: 0x0, symName: __ZNSt3__117__floyd_sift_downB7v160006INS_17_ClassicAlgPolicyERPFbNS_4pairINS_12basic_stringIcNS_11char_traitsIcEENS_9allocatorIcEEEENS2_IiiEEEESA_ENS_11__wrap_iterIPSA_EEEET1_SH_OT0_NS_15iterator_traitsISH_E15difference_typeE, symObjAddr: 0x3DC8, symBinAddr: 0x100006EC4, symSize: 0x260 }
  - { offsetInCU: 0x4E4A, offset: 0x4E4A, size: 0x8, addend: 0x0, symName: __ZNSt3__111__introsortINS_17_ClassicAlgPolicyERPFbNS_4pairINS_12basic_stringIcNS_11char_traitsIcEENS_9allocatorIcEEEENS2_IiiEEEESA_EPSA_EEvT1_SF_T0_NS_15iterator_traitsISF_E15difference_typeE, symObjAddr: 0x4334, symBinAddr: 0x100007430, symSize: 0xDE0 }
  - { offsetInCU: 0x4FA4, offset: 0x4FA4, size: 0x8, addend: 0x0, symName: __ZNSt3__118__insertion_sort_3B7v160006INS_17_ClassicAlgPolicyERPFbNS_4pairINS_12basic_stringIcNS_11char_traitsIcEENS_9allocatorIcEEEENS2_IiiEEEESA_EPSA_EEvT1_SF_T0_, symObjAddr: 0x5248, symBinAddr: 0x100008344, symSize: 0x364 }
  - { offsetInCU: 0x5069, offset: 0x5069, size: 0x8, addend: 0x0, symName: __ZNSt3__111__sift_downB7v160006INS_17_ClassicAlgPolicyERPFbNS_4pairINS_12basic_stringIcNS_11char_traitsIcEENS_9allocatorIcEEEENS2_IiiEEEESA_EPSA_EEvT1_OT0_NS_15iterator_traitsISF_E15difference_typeESF_, symObjAddr: 0x659C, symBinAddr: 0x100009698, symSize: 0x5B4 }
  - { offsetInCU: 0x5117, offset: 0x5117, size: 0x8, addend: 0x0, symName: __ZNSt3__117__floyd_sift_downB7v160006INS_17_ClassicAlgPolicyERPFbNS_4pairINS_12basic_stringIcNS_11char_traitsIcEENS_9allocatorIcEEEENS2_IiiEEEESA_EPSA_EET1_SF_OT0_NS_15iterator_traitsISF_E15difference_typeE, symObjAddr: 0x6D2C, symBinAddr: 0x100009E28, symSize: 0x22C }
  - { offsetInCU: 0x51AF, offset: 0x51AF, size: 0x8, addend: 0x0, symName: __ZNSt3__127__insertion_sort_incompleteIRPFbNS_4pairINS_12basic_stringIcNS_11char_traitsIcEENS_9allocatorIcEEEENS1_IiiEEEES9_EPS9_EEbT0_SE_T_, symObjAddr: 0x5A80, symBinAddr: 0x100008B7C, symSize: 0x5A4 }
  - { offsetInCU: 0x52B4, offset: 0x52B4, size: 0x8, addend: 0x0, symName: __ZNSt3__124__put_character_sequenceB7v160006IcNS_11char_traitsIcEEEERNS_13basic_ostreamIT_T0_EES7_PKS4_m, symObjAddr: 0x75CC, symBinAddr: 0x10000A6C8, symSize: 0x1F4 }
  - { offsetInCU: 0x6DF7, offset: 0x6DF7, size: 0x8, addend: 0x0, symName: __ZNSt3__14sortB7v160006INS_11__wrap_iterIPNS_4pairINS_12basic_stringIcNS_11char_traitsIcEENS_9allocatorIcEEEENS2_IiiEEEEEEPFbSA_SA_EEEvT_SF_T0_, symObjAddr: 0x618, symBinAddr: 0x100003714, symSize: 0x48 }
  - { offsetInCU: 0x6E51, offset: 0x6E51, size: 0x8, addend: 0x0, symName: __ZNSt3__1lsB7v160006INS_11char_traitsIcEEEERNS_13basic_ostreamIcT_EES6_PKc, symObjAddr: 0x6E8, symBinAddr: 0x1000037E4, symSize: 0x48 }
  - { offsetInCU: 0x6E97, offset: 0x6E97, size: 0x8, addend: 0x0, symName: __ZNSt3__1lsB7v160006IcNS_11char_traitsIcEENS_9allocatorIcEEEERNS_13basic_ostreamIT_T0_EES9_RKNS_12basic_stringIS6_S7_T1_EE, symObjAddr: 0x730, symBinAddr: 0x10000382C, symSize: 0x4C }
  - { offsetInCU: 0x6EEF, offset: 0x6EEF, size: 0x8, addend: 0x0, symName: __ZNSt3__119__debug_db_insert_cB7v160006INS_6vectorINS_4pairINS_12basic_stringIcNS_11char_traitsIcEENS_9allocatorIcEEEENS2_IiiEEEENS6_ISA_EEEEEEvPT_, symObjAddr: 0x880, symBinAddr: 0x10000397C, symSize: 0x10 }
  - { offsetInCU: 0x6F20, offset: 0x6F20, size: 0x8, addend: 0x0, symName: __ZNSt3__118__debug_db_erase_cB7v160006INS_6vectorINS_4pairINS_12basic_stringIcNS_11char_traitsIcEENS_9allocatorIcEEEENS2_IiiEEEENS6_ISA_EEEEEEvPT_, symObjAddr: 0xB3C, symBinAddr: 0x100003C38, symSize: 0x10 }
  - { offsetInCU: 0x6F51, offset: 0x6F51, size: 0x8, addend: 0x0, symName: __ZNSt3__112__to_addressB7v160006INS_4pairINS_12basic_stringIcNS_11char_traitsIcEENS_9allocatorIcEEEENS1_IiiEEEEEEPT_SB_, symObjAddr: 0xC58, symBinAddr: 0x100003D54, symSize: 0x14 }
  - { offsetInCU: 0x6F86, offset: 0x6F86, size: 0x8, addend: 0x0, symName: __ZNSt3__130__libcpp_is_constant_evaluatedB7v160006Ev, symObjAddr: 0xDD0, symBinAddr: 0x100003ECC, symSize: 0xC }
  - { offsetInCU: 0x6FA3, offset: 0x6FA3, size: 0x8, addend: 0x0, symName: __ZNSt3__119__libcpp_deallocateB7v160006EPvmm, symObjAddr: 0xDDC, symBinAddr: 0x100003ED8, symSize: 0x30 }
  - { offsetInCU: 0x6FEB, offset: 0x6FEB, size: 0x8, addend: 0x0, symName: __ZNSt3__127__do_deallocate_handle_sizeB7v160006IJEEEvPvmDpT_, symObjAddr: 0xE0C, symBinAddr: 0x100003F08, symSize: 0x28 }
  - { offsetInCU: 0x7029, offset: 0x7029, size: 0x8, addend: 0x0, symName: __ZNSt3__124__libcpp_operator_deleteB7v160006IJPvEEEvDpT_, symObjAddr: 0xE34, symBinAddr: 0x100003F30, symSize: 0x24 }
  - { offsetInCU: 0x705E, offset: 0x705E, size: 0x8, addend: 0x0, symName: __ZNSt3__119__debug_db_insert_cB7v160006INS_12basic_stringIcNS_11char_traitsIcEENS_9allocatorIcEEEEEEvPT_, symObjAddr: 0x1008, symBinAddr: 0x100004104, symSize: 0x10 }
  - { offsetInCU: 0x708F, offset: 0x708F, size: 0x8, addend: 0x0, symName: __ZNSt3__118__constexpr_strlenB7v160006EPKc, symObjAddr: 0x10D4, symBinAddr: 0x1000041D0, symSize: 0x24 }
  - { offsetInCU: 0x70BB, offset: 0x70BB, size: 0x8, addend: 0x0, symName: __ZNSt3__13maxB7v160006ImEERKT_S3_S3_, symObjAddr: 0x1784, symBinAddr: 0x100004880, symSize: 0x2C }
  - { offsetInCU: 0x70FE, offset: 0x70FE, size: 0x8, addend: 0x0, symName: __ZNSt3__13minB7v160006ImEERKT_S3_S3_, symObjAddr: 0x17B0, symBinAddr: 0x1000048AC, symSize: 0x2C }
  - { offsetInCU: 0x7342, offset: 0x7342, size: 0x8, addend: 0x0, symName: __ZNSt3__13minB7v160006ImNS_6__lessImmEEEERKT_S5_S5_T0_, symObjAddr: 0x183C, symBinAddr: 0x100004938, symSize: 0x54 }
  - { offsetInCU: 0x73D7, offset: 0x73D7, size: 0x8, addend: 0x0, symName: __ZNSt3__120__throw_length_errorB7v160006EPKc, symObjAddr: 0x1918, symBinAddr: 0x100004A14, symSize: 0x64 }
  - { offsetInCU: 0x73FF, offset: 0x73FF, size: 0x8, addend: 0x0, symName: __ZNSt3__13maxB7v160006ImNS_6__lessImmEEEERKT_S5_S5_T0_, symObjAddr: 0x19FC, symBinAddr: 0x100004AF8, symSize: 0x54 }
  - { offsetInCU: 0x7459, offset: 0x7459, size: 0x8, addend: 0x0, symName: __ZNSt3__119__allocate_at_leastB7v160006INS_9allocatorINS_4pairINS_12basic_stringIcNS_11char_traitsIcEENS1_IcEEEENS2_IiiEEEEEEEENS_19__allocation_resultINS_16allocator_traitsIT_E7pointerEEERSD_m, symObjAddr: 0x1B60, symBinAddr: 0x100004C5C, symSize: 0x40 }
  - { offsetInCU: 0x749C, offset: 0x749C, size: 0x8, addend: 0x0, symName: __ZNSt3__117__libcpp_allocateB7v160006Emm, symObjAddr: 0x1D10, symBinAddr: 0x100004E0C, symSize: 0x28 }
  - { offsetInCU: 0x74D9, offset: 0x74D9, size: 0x8, addend: 0x0, symName: __ZNSt3__121__libcpp_operator_newB7v160006IJmEEEPvDpT_, symObjAddr: 0x1D38, symBinAddr: 0x100004E34, symSize: 0x24 }
  - { offsetInCU: 0x7512, offset: 0x7512, size: 0x8, addend: 0x0, symName: __ZNSt3__142__uninitialized_allocator_move_if_noexceptB7v160006INS_9allocatorINS_4pairINS_12basic_stringIcNS_11char_traitsIcEENS1_IcEEEENS2_IiiEEEEEENS_16reverse_iteratorIPS9_EESD_SD_EET2_RT_T0_T1_SE_, symObjAddr: 0x1DC0, symBinAddr: 0x100004EBC, symSize: 0x134 }
  - { offsetInCU: 0x75B2, offset: 0x75B2, size: 0x8, addend: 0x0, symName: __ZNSt3__14swapB7v160006IPNS_4pairINS_12basic_stringIcNS_11char_traitsIcEENS_9allocatorIcEEEENS1_IiiEEEEEEvRT_SC_, symObjAddr: 0x1F40, symBinAddr: 0x10000503C, symSize: 0x3C }
  - { offsetInCU: 0x7603, offset: 0x7603, size: 0x8, addend: 0x0, symName: __ZNSt3__125__debug_db_invalidate_allB7v160006INS_6vectorINS_4pairINS_12basic_stringIcNS_11char_traitsIcEENS_9allocatorIcEEEENS2_IiiEEEENS6_ISA_EEEEEEvPT_, symObjAddr: 0x2028, symBinAddr: 0x100005124, symSize: 0x10 }
  - { offsetInCU: 0x7634, offset: 0x7634, size: 0x8, addend: 0x0, symName: __ZNSt3__122__make_exception_guardB7v160006INS_29_AllocatorDestroyRangeReverseINS_9allocatorINS_4pairINS_12basic_stringIcNS_11char_traitsIcEENS2_IcEEEENS3_IiiEEEEEENS_16reverse_iteratorIPSA_EEEEEENS_28__exception_guard_exceptionsIT_EESH_, symObjAddr: 0x2038, symBinAddr: 0x100005134, symSize: 0x4C }
  - { offsetInCU: 0x766A, offset: 0x766A, size: 0x8, addend: 0x0, symName: __ZNSt3__1neB7v160006IPNS_4pairINS_12basic_stringIcNS_11char_traitsIcEENS_9allocatorIcEEEENS1_IiiEEEESA_EEbRKNS_16reverse_iteratorIT_EERKNSB_IT0_EE, symObjAddr: 0x20C8, symBinAddr: 0x1000051C4, symSize: 0x48 }
  - { offsetInCU: 0x76B6, offset: 0x76B6, size: 0x8, addend: 0x0, symName: __ZNSt3__112__to_addressB7v160006INS_16reverse_iteratorIPNS_4pairINS_12basic_stringIcNS_11char_traitsIcEENS_9allocatorIcEEEENS2_IiiEEEEEEvEENS_5decayIDTclsr19__to_address_helperIT_EE6__callclsr3stdE7declvalIRKSE_EEEEE4typeESG_, symObjAddr: 0x2144, symBinAddr: 0x100005240, symSize: 0x24 }
  - { offsetInCU: 0x7715, offset: 0x7715, size: 0x8, addend: 0x0, symName: __ZNSt3__119__allocator_destroyB7v160006INS_9allocatorINS_4pairINS_12basic_stringIcNS_11char_traitsIcEENS1_IcEEEENS2_IiiEEEEEENS_16reverse_iteratorINSB_IPS9_EEEESE_EEvRT_T0_T1_, symObjAddr: 0x24A4, symBinAddr: 0x1000055A0, symSize: 0x70 }
  - { offsetInCU: 0x777A, offset: 0x777A, size: 0x8, addend: 0x0, symName: __ZNSt3__1neB7v160006INS_16reverse_iteratorIPNS_4pairINS_12basic_stringIcNS_11char_traitsIcEENS_9allocatorIcEEEENS2_IiiEEEEEESC_EEbRKNS1_IT_EERKNS1_IT0_EE, symObjAddr: 0x2550, symBinAddr: 0x10000564C, symSize: 0x60 }
  - { offsetInCU: 0x77C6, offset: 0x77C6, size: 0x8, addend: 0x0, symName: __ZNSt3__112__to_addressB7v160006INS_16reverse_iteratorINS1_IPNS_4pairINS_12basic_stringIcNS_11char_traitsIcEENS_9allocatorIcEEEENS2_IiiEEEEEEEEvEENS_5decayIDTclsr19__to_address_helperIT_EE6__callclsr3stdE7declvalIRKSF_EEEEE4typeESH_, symObjAddr: 0x25B0, symBinAddr: 0x1000056AC, symSize: 0x24 }
  - { offsetInCU: 0x7825, offset: 0x7825, size: 0x8, addend: 0x0, symName: __ZNSt3__111__sort_implB7v160006INS_17_ClassicAlgPolicyENS_11__wrap_iterIPNS_4pairINS_12basic_stringIcNS_11char_traitsIcEENS_9allocatorIcEEEENS3_IiiEEEEEEPFbSB_SB_EEEvT0_SG_RT1_, symObjAddr: 0x29C8, symBinAddr: 0x100005AC4, symSize: 0xC8 }
  - { offsetInCU: 0x78CC, offset: 0x78CC, size: 0x8, addend: 0x0, symName: __ZNSt3__123__debug_randomize_rangeB7v160006INS_17_ClassicAlgPolicyENS_11__wrap_iterIPNS_4pairINS_12basic_stringIcNS_11char_traitsIcEENS_9allocatorIcEEEENS3_IiiEEEEEESD_EEvT0_T1_, symObjAddr: 0x2A90, symBinAddr: 0x100005B8C, symSize: 0x14 }
  - { offsetInCU: 0x791D, offset: 0x791D, size: 0x8, addend: 0x0, symName: __ZNSt3__114__partial_sortB7v160006INS_17_ClassicAlgPolicyEPFbNS_4pairINS_12basic_stringIcNS_11char_traitsIcEENS_9allocatorIcEEEENS2_IiiEEEESA_ENS_11__wrap_iterIPSA_EESF_EET1_SG_SG_T2_RT0_, symObjAddr: 0x2AA4, symBinAddr: 0x100005BA0, symSize: 0xD8 }
  - { offsetInCU: 0x79A5, offset: 0x79A5, size: 0x8, addend: 0x0, symName: __ZNSt3__16__sortIRPFbNS_4pairINS_12basic_stringIcNS_11char_traitsIcEENS_9allocatorIcEEEENS1_IiiEEEES9_EPS9_EEvT0_SE_T_, symObjAddr: 0x2B7C, symBinAddr: 0x100005C78, symSize: 0x68 }
  - { offsetInCU: 0x7A35, offset: 0x7A35, size: 0x8, addend: 0x0, symName: __ZNSt3__113__unwrap_iterB7v160006INS_11__wrap_iterIPNS_4pairINS_12basic_stringIcNS_11char_traitsIcEENS_9allocatorIcEEEENS2_IiiEEEEEENS_18__unwrap_iter_implISC_Lb1EEELi0EEEDTclsrT0_8__unwrapclsr3stdE7declvalIT_EEEESG_, symObjAddr: 0x2BE4, symBinAddr: 0x100005CE0, symSize: 0x2C }
  - { offsetInCU: 0x7A79, offset: 0x7A79, size: 0x8, addend: 0x0, symName: __ZNSt3__1eqB7v160006IPNS_4pairINS_12basic_stringIcNS_11char_traitsIcEENS_9allocatorIcEEEENS1_IiiEEEEEEbRKNS_11__wrap_iterIT_EESF_, symObjAddr: 0x2C10, symBinAddr: 0x100005D0C, symSize: 0x48 }
  - { offsetInCU: 0x7BD4, offset: 0x7BD4, size: 0x8, addend: 0x0, symName: __ZNSt3__119__partial_sort_implB7v160006INS_17_ClassicAlgPolicyERPFbNS_4pairINS_12basic_stringIcNS_11char_traitsIcEENS_9allocatorIcEEEENS2_IiiEEEESA_ENS_11__wrap_iterIPSA_EESG_EET1_SH_SH_T2_OT0_, symObjAddr: 0x2C78, symBinAddr: 0x100005D74, symSize: 0x1EC }
  - { offsetInCU: 0x7C6B, offset: 0x7C6B, size: 0x8, addend: 0x0, symName: __ZNSt3__111__make_heapB7v160006INS_17_ClassicAlgPolicyERPFbNS_4pairINS_12basic_stringIcNS_11char_traitsIcEENS_9allocatorIcEEEENS2_IiiEEEESA_ENS_11__wrap_iterIPSA_EEEEvT1_SH_OT0_, symObjAddr: 0x2E7C, symBinAddr: 0x100005F78, symSize: 0xD4 }
  - { offsetInCU: 0x7D0D, offset: 0x7D0D, size: 0x8, addend: 0x0, symName: __ZNSt3__1miB7v160006IPNS_4pairINS_12basic_stringIcNS_11char_traitsIcEENS_9allocatorIcEEEENS1_IiiEEEESA_EENS_11__wrap_iterIT_E15difference_typeERKSD_RKNSB_IT0_EE, symObjAddr: 0x2F50, symBinAddr: 0x10000604C, symSize: 0x48 }
  - { offsetInCU: 0x7D59, offset: 0x7D59, size: 0x8, addend: 0x0, symName: __ZNSt3__1neB7v160006IPNS_4pairINS_12basic_stringIcNS_11char_traitsIcEENS_9allocatorIcEEEENS1_IiiEEEEEEbRKNS_11__wrap_iterIT_EESF_, symObjAddr: 0x2F98, symBinAddr: 0x100006094, symSize: 0x34 }
  - { offsetInCU: 0x7D9C, offset: 0x7D9C, size: 0x8, addend: 0x0, symName: __ZNSt3__111__sort_heapB7v160006INS_17_ClassicAlgPolicyERPFbNS_4pairINS_12basic_stringIcNS_11char_traitsIcEENS_9allocatorIcEEEENS2_IiiEEEESA_ENS_11__wrap_iterIPSA_EEEEvT1_SH_OT0_, symObjAddr: 0x365C, symBinAddr: 0x100006758, symSize: 0x98 }
  - { offsetInCU: 0x7E30, offset: 0x7E30, size: 0x8, addend: 0x0, symName: __ZNSt3__19iter_swapB7v160006INS_11__wrap_iterIPNS_4pairINS_12basic_stringIcNS_11char_traitsIcEENS_9allocatorIcEEEENS2_IiiEEEEEESC_EEvT_T0_, symObjAddr: 0x3758, symBinAddr: 0x100006854, symSize: 0x50 }
  - { offsetInCU: 0x7E78, offset: 0x7E78, size: 0x8, addend: 0x0, symName: __ZNSt3__14swapB7v160006INS_12basic_stringIcNS_11char_traitsIcEENS_9allocatorIcEEEENS_4pairIiiEEEENS_9enable_ifIXaasr14__is_swappableIT_EE5valuesr14__is_swappableIT0_EE5valueEvE4typeERNS7_ISA_SB_EESF_, symObjAddr: 0x37A8, symBinAddr: 0x1000068A4, symSize: 0x2C }
  - { offsetInCU: 0x7EC7, offset: 0x7EC7, size: 0x8, addend: 0x0, symName: __ZNSt3__14swapB7v160006IcNS_11char_traitsIcEENS_9allocatorIcEEEEvRNS_12basic_stringIT_T0_T1_EESA_, symObjAddr: 0x3818, symBinAddr: 0x100006914, symSize: 0x2C }
  - { offsetInCU: 0x7F1B, offset: 0x7F1B, size: 0x8, addend: 0x0, symName: __ZNSt3__14swapB7v160006IiiEENS_9enable_ifIXaasr14__is_swappableIT_EE5valuesr14__is_swappableIT0_EE5valueEvE4typeERNS_4pairIS2_S3_EES8_, symObjAddr: 0x3844, symBinAddr: 0x100006940, symSize: 0x2C }
  - { offsetInCU: 0x7F6A, offset: 0x7F6A, size: 0x8, addend: 0x0, symName: __ZNSt3__125__debug_db_invalidate_allB7v160006INS_12basic_stringIcNS_11char_traitsIcEENS_9allocatorIcEEEEEEvPT_, symObjAddr: 0x398C, symBinAddr: 0x100006A88, symSize: 0x10 }
  - { offsetInCU: 0x7F9B, offset: 0x7F9B, size: 0x8, addend: 0x0, symName: __ZNSt3__115__debug_db_swapB7v160006INS_12basic_stringIcNS_11char_traitsIcEENS_9allocatorIcEEEEEEvPT_S8_, symObjAddr: 0x399C, symBinAddr: 0x100006A98, symSize: 0x14 }
  - { offsetInCU: 0x7FDA, offset: 0x7FDA, size: 0x8, addend: 0x0, symName: __ZNSt3__14swapB7v160006INS_12basic_stringIcNS_11char_traitsIcEENS_9allocatorIcEEE5__repEEEvRT_S9_, symObjAddr: 0x39B0, symBinAddr: 0x100006AAC, symSize: 0x54 }
  - { offsetInCU: 0x802B, offset: 0x802B, size: 0x8, addend: 0x0, symName: __ZNSt3__116__swap_allocatorB7v160006INS_9allocatorIcEEEEvRT_S4_, symObjAddr: 0x3A28, symBinAddr: 0x100006B24, symSize: 0x2C }
  - { offsetInCU: 0x806A, offset: 0x806A, size: 0x8, addend: 0x0, symName: __ZNSt3__116__swap_allocatorB7v160006INS_9allocatorIcEEEEvRT_S4_NS_17integral_constantIbLb0EEE, symObjAddr: 0x3AC4, symBinAddr: 0x100006BC0, symSize: 0x14 }
  - { offsetInCU: 0x80AB, offset: 0x80AB, size: 0x8, addend: 0x0, symName: __ZNSt3__14swapB7v160006IiEEvRT_S2_, symObjAddr: 0x3B54, symBinAddr: 0x100006C50, symSize: 0x3C }
  - { offsetInCU: 0x8120, offset: 0x8120, size: 0x8, addend: 0x0, symName: __ZNSt3__110__pop_heapB7v160006INS_17_ClassicAlgPolicyEPFbNS_4pairINS_12basic_stringIcNS_11char_traitsIcEENS_9allocatorIcEEEENS2_IiiEEEESA_ENS_11__wrap_iterIPSA_EEEEvT1_SG_RT0_NS_15iterator_traitsISG_E15difference_typeE, symObjAddr: 0x3C34, symBinAddr: 0x100006D30, symSize: 0x174 }
  - { offsetInCU: 0x81CA, offset: 0x81CA, size: 0x8, addend: 0x0, symName: __ZNSt3__19__sift_upB7v160006INS_17_ClassicAlgPolicyERPFbNS_4pairINS_12basic_stringIcNS_11char_traitsIcEENS_9allocatorIcEEEENS2_IiiEEEESA_ENS_11__wrap_iterIPSA_EEEEvT1_SH_OT0_NS_15iterator_traitsISH_E15difference_typeE, symObjAddr: 0x4028, symBinAddr: 0x100007124, symSize: 0x2A4 }
  - { offsetInCU: 0x826B, offset: 0x826B, size: 0x8, addend: 0x0, symName: __ZNSt3__17__log2iB7v160006IlEET_S1_, symObjAddr: 0x42CC, symBinAddr: 0x1000073C8, symSize: 0x54 }
  - { offsetInCU: 0x82D5, offset: 0x82D5, size: 0x8, addend: 0x0, symName: __ZNSt3__112__libcpp_clzB7v160006Em, symObjAddr: 0x512C, symBinAddr: 0x100008228, symSize: 0x1C }
  - { offsetInCU: 0x8301, offset: 0x8301, size: 0x8, addend: 0x0, symName: __ZNSt3__124__sort3_maybe_branchlessB7v160006INS_17_ClassicAlgPolicyERPFbNS_4pairINS_12basic_stringIcNS_11char_traitsIcEENS_9allocatorIcEEEENS2_IiiEEEESA_EPSA_EENS_9enable_ifIXntsr21__use_branchless_sortIT0_T1_EE5valueEvE4typeESH_SH_SH_SG_, symObjAddr: 0x517C, symBinAddr: 0x100008278, symSize: 0x3C }
  - { offsetInCU: 0x8372, offset: 0x8372, size: 0x8, addend: 0x0, symName: __ZNSt3__124__sort4_maybe_branchlessB7v160006INS_17_ClassicAlgPolicyERPFbNS_4pairINS_12basic_stringIcNS_11char_traitsIcEENS_9allocatorIcEEEENS2_IiiEEEESA_EPSA_EENS_9enable_ifIXntsr21__use_branchless_sortIT0_T1_EE5valueEvE4typeESH_SH_SH_SH_SG_, symObjAddr: 0x51B8, symBinAddr: 0x1000082B4, symSize: 0x44 }
  - { offsetInCU: 0x83F7, offset: 0x83F7, size: 0x8, addend: 0x0, symName: __ZNSt3__124__sort5_maybe_branchlessB7v160006INS_17_ClassicAlgPolicyERPFbNS_4pairINS_12basic_stringIcNS_11char_traitsIcEENS_9allocatorIcEEEENS2_IiiEEEESA_EPSA_EENS_9enable_ifIXntsr21__use_branchless_sortIT0_T1_EE5valueEvE4typeESH_SH_SH_SH_SH_SG_, symObjAddr: 0x51FC, symBinAddr: 0x1000082F8, symSize: 0x4C }
  - { offsetInCU: 0x848B, offset: 0x848B, size: 0x8, addend: 0x0, symName: __ZNSt3__114__partial_sortB7v160006INS_17_ClassicAlgPolicyERPFbNS_4pairINS_12basic_stringIcNS_11char_traitsIcEENS_9allocatorIcEEEENS2_IiiEEEESA_EPSA_SE_EET1_SF_SF_T2_RT0_, symObjAddr: 0x55AC, symBinAddr: 0x1000086A8, symSize: 0x94 }
  - { offsetInCU: 0x8513, offset: 0x8513, size: 0x8, addend: 0x0, symName: __ZNSt3__119__sort5_wrap_policyB7v160006INS_17_ClassicAlgPolicyERPFbNS_4pairINS_12basic_stringIcNS_11char_traitsIcEENS_9allocatorIcEEEENS2_IiiEEEESA_EPSA_EEjT1_SF_SF_SF_SF_T0_, symObjAddr: 0x5640, symBinAddr: 0x10000873C, symSize: 0x54 }
  - { offsetInCU: 0x85B9, offset: 0x85B9, size: 0x8, addend: 0x0, symName: __ZNSt3__17__sort3B7v160006INS_17_ClassicAlgPolicyERPFbNS_4pairINS_12basic_stringIcNS_11char_traitsIcEENS_9allocatorIcEEEENS2_IiiEEEESA_EPSA_EEjT1_SF_SF_T0_, symObjAddr: 0x5694, symBinAddr: 0x100008790, symSize: 0x3EC }
  - { offsetInCU: 0x8638, offset: 0x8638, size: 0x8, addend: 0x0, symName: __ZNSt3__19iter_swapB7v160006IPNS_4pairINS_12basic_stringIcNS_11char_traitsIcEENS_9allocatorIcEEEENS1_IiiEEEESA_EEvT_T0_, symObjAddr: 0x603C, symBinAddr: 0x100009138, symSize: 0x2C }
  - { offsetInCU: 0x8680, offset: 0x8680, size: 0x8, addend: 0x0, symName: __ZNSt3__17__sort4B7v160006INS_17_ClassicAlgPolicyERPFbNS_4pairINS_12basic_stringIcNS_11char_traitsIcEENS_9allocatorIcEEEENS2_IiiEEEESA_EPSA_EEjT1_SF_SF_SF_T0_, symObjAddr: 0x6068, symBinAddr: 0x100009164, symSize: 0x284 }
  - { offsetInCU: 0x870D, offset: 0x870D, size: 0x8, addend: 0x0, symName: __ZNSt3__123__debug_randomize_rangeB7v160006INS_17_ClassicAlgPolicyEPNS_4pairINS_12basic_stringIcNS_11char_traitsIcEENS_9allocatorIcEEEENS2_IiiEEEESB_EEvT0_T1_, symObjAddr: 0x6330, symBinAddr: 0x10000942C, symSize: 0x14 }
  - { offsetInCU: 0x875E, offset: 0x875E, size: 0x8, addend: 0x0, symName: __ZNSt3__119__partial_sort_implB7v160006INS_17_ClassicAlgPolicyERPFbNS_4pairINS_12basic_stringIcNS_11char_traitsIcEENS_9allocatorIcEEEENS2_IiiEEEESA_EPSA_SE_EET1_SF_SF_T2_OT0_, symObjAddr: 0x6344, symBinAddr: 0x100009440, symSize: 0x1A0 }
  - { offsetInCU: 0x87F4, offset: 0x87F4, size: 0x8, addend: 0x0, symName: __ZNSt3__111__make_heapB7v160006INS_17_ClassicAlgPolicyERPFbNS_4pairINS_12basic_stringIcNS_11char_traitsIcEENS_9allocatorIcEEEENS2_IiiEEEESA_EPSA_EEvT1_SF_OT0_, symObjAddr: 0x64E4, symBinAddr: 0x1000095E0, symSize: 0xB8 }
  - { offsetInCU: 0x8896, offset: 0x8896, size: 0x8, addend: 0x0, symName: __ZNSt3__111__sort_heapB7v160006INS_17_ClassicAlgPolicyERPFbNS_4pairINS_12basic_stringIcNS_11char_traitsIcEENS_9allocatorIcEEEENS2_IiiEEEESA_EPSA_EEvT1_SF_OT0_, symObjAddr: 0x6B50, symBinAddr: 0x100009C4C, symSize: 0x90 }
  - { offsetInCU: 0x892A, offset: 0x892A, size: 0x8, addend: 0x0, symName: __ZNSt3__110__pop_heapB7v160006INS_17_ClassicAlgPolicyEPFbNS_4pairINS_12basic_stringIcNS_11char_traitsIcEENS_9allocatorIcEEEENS2_IiiEEEESA_EPSA_EEvT1_SE_RT0_NS_15iterator_traitsISE_E15difference_typeE, symObjAddr: 0x6BE0, symBinAddr: 0x100009CDC, symSize: 0x14C }
  - { offsetInCU: 0x89D2, offset: 0x89D2, size: 0x8, addend: 0x0, symName: __ZNSt3__19__sift_upB7v160006INS_17_ClassicAlgPolicyERPFbNS_4pairINS_12basic_stringIcNS_11char_traitsIcEENS_9allocatorIcEEEENS2_IiiEEEESA_EPSA_EEvT1_SF_OT0_NS_15iterator_traitsISF_E15difference_typeE, symObjAddr: 0x6F58, symBinAddr: 0x10000A054, symSize: 0x27C }
  - { offsetInCU: 0x8A73, offset: 0x8A73, size: 0x8, addend: 0x0, symName: __ZNSt3__17__sort5IRPFbNS_4pairINS_12basic_stringIcNS_11char_traitsIcEENS_9allocatorIcEEEENS1_IiiEEEES9_EPS9_EEjT0_SE_SE_SE_SE_T_, symObjAddr: 0x71D4, symBinAddr: 0x10000A2D0, symSize: 0x350 }
  - { offsetInCU: 0x8B73, offset: 0x8B73, size: 0x8, addend: 0x0, symName: __ZNSt3__112__to_addressB7v160006INS_11__wrap_iterIPNS_4pairINS_12basic_stringIcNS_11char_traitsIcEENS_9allocatorIcEEEENS2_IiiEEEEEEvEENS_5decayIDTclsr19__to_address_helperIT_EE6__callclsr3stdE7declvalIRKSE_EEEEE4typeESG_, symObjAddr: 0x754C, symBinAddr: 0x10000A648, symSize: 0x24 }
  - { offsetInCU: 0x8C52, offset: 0x8C52, size: 0x8, addend: 0x0, symName: __ZNSt3__116__pad_and_outputB7v160006IcNS_11char_traitsIcEEEENS_19ostreambuf_iteratorIT_T0_EES6_PKS4_S8_S8_RNS_8ios_baseES4_, symObjAddr: 0x7858, symBinAddr: 0x10000A954, symSize: 0x248 }
  - { offsetInCU: 0x8D21, offset: 0x8D21, size: 0x8, addend: 0x0, symName: __ZNSt3__19use_facetB7v160006INS_5ctypeIcEEEERKT_RKNS_6localeE, symObjAddr: 0x7E10, symBinAddr: 0x10000AF0C, symSize: 0x2C }
  - { offsetInCU: 0x91F0, offset: 0x91F0, size: 0x8, addend: 0x0, symName: __ZNSt3__112__to_addressB7v160006IKcEEPT_S3_, symObjAddr: 0x7EA8, symBinAddr: 0x10000AFA4, symSize: 0x14 }
  - { offsetInCU: 0x9478, offset: 0x9478, size: 0x8, addend: 0x0, symName: __ZSt28__throw_bad_array_new_lengthB7v160006v, symObjAddr: 0x1CDC, symBinAddr: 0x100004DD8, symSize: 0x34 }
  - { offsetInCU: 0x9941, offset: 0x9941, size: 0x8, addend: 0x0, symName: __ZNSt3__16vectorINS_4pairINS_12basic_stringIcNS_11char_traitsIcEENS_9allocatorIcEEEENS1_IiiEEEENS5_IS9_EEE26__swap_out_circular_bufferERNS_14__split_bufferIS9_RSA_EE, symObjAddr: 0x15B0, symBinAddr: 0x1000046AC, symSize: 0x118 }
  - { offsetInCU: 0xBCA6, offset: 0xBCA6, size: 0x8, addend: 0x0, symName: __Z7compareNSt3__14pairINS_12basic_stringIcNS_11char_traitsIcEENS_9allocatorIcEEEENS0_IiiEEEES8_, symObjAddr: 0x0, symBinAddr: 0x1000030FC, symSize: 0x94 }
  - { offsetInCU: 0xBCE3, offset: 0xBCE3, size: 0x8, addend: 0x0, symName: _main, symObjAddr: 0x94, symBinAddr: 0x100003190, symSize: 0x408 }
  - { offsetInCU: 0xBD28, offset: 0xBD28, size: 0x8, addend: 0x0, symName: __ZNSt3__16vectorINS_4pairINS_12basic_stringIcNS_11char_traitsIcEENS_9allocatorIcEEEENS1_IiiEEEENS5_IS9_EEEC1B7v160006Ev, symObjAddr: 0x49C, symBinAddr: 0x100003598, symSize: 0x2C }
  - { offsetInCU: 0xBD50, offset: 0xBD50, size: 0x8, addend: 0x0, symName: __ZNSt3__16vectorINS_4pairINS_12basic_stringIcNS_11char_traitsIcEENS_9allocatorIcEEEENS1_IiiEEEENS5_IS9_EEE9push_backB7v160006EOS9_, symObjAddr: 0x4C8, symBinAddr: 0x1000035C4, symSize: 0x6C }
  - { offsetInCU: 0xBD8B, offset: 0xBD8B, size: 0x8, addend: 0x0, symName: __ZNSt3__112basic_stringIcNS_11char_traitsIcEENS_9allocatorIcEEEC1B7v160006IDnEEPKc, symObjAddr: 0x534, symBinAddr: 0x100003630, symSize: 0x34 }
  - { offsetInCU: 0xBDC8, offset: 0xBDC8, size: 0x8, addend: 0x0, symName: __ZNSt3__14pairIiiEC1B7v160006ERKiS3_, symObjAddr: 0x568, symBinAddr: 0x100003664, symSize: 0x3C }
  - { offsetInCU: 0xBE0D, offset: 0xBE0D, size: 0x8, addend: 0x0, symName: __ZNSt3__14pairINS_12basic_stringIcNS_11char_traitsIcEENS_9allocatorIcEEEENS0_IiiEEEC1B7v160006ERKS6_RKS7_, symObjAddr: 0x5A4, symBinAddr: 0x1000036A0, symSize: 0x3C }
  - { offsetInCU: 0xBE52, offset: 0xBE52, size: 0x8, addend: 0x0, symName: __ZNSt3__14pairINS_12basic_stringIcNS_11char_traitsIcEENS_9allocatorIcEEEENS0_IiiEEED1Ev, symObjAddr: 0x5E0, symBinAddr: 0x1000036DC, symSize: 0x2C }
  - { offsetInCU: 0xBE7C, offset: 0xBE7C, size: 0x8, addend: 0x0, symName: __ZNSt3__16vectorINS_4pairINS_12basic_stringIcNS_11char_traitsIcEENS_9allocatorIcEEEENS1_IiiEEEENS5_IS9_EEE5beginB7v160006Ev, symObjAddr: 0x660, symBinAddr: 0x10000375C, symSize: 0x30 }
  - { offsetInCU: 0xBEA2, offset: 0xBEA2, size: 0x8, addend: 0x0, symName: __ZNSt3__16vectorINS_4pairINS_12basic_stringIcNS_11char_traitsIcEENS_9allocatorIcEEEENS1_IiiEEEENS5_IS9_EEE3endB7v160006Ev, symObjAddr: 0x690, symBinAddr: 0x10000378C, symSize: 0x30 }
  - { offsetInCU: 0xBEC9, offset: 0xBEC9, size: 0x8, addend: 0x0, symName: __ZNKSt3__16vectorINS_4pairINS_12basic_stringIcNS_11char_traitsIcEENS_9allocatorIcEEEENS1_IiiEEEENS5_IS9_EEE4sizeB7v160006Ev, symObjAddr: 0x6C0, symBinAddr: 0x1000037BC, symSize: 0x28 }
  - { offsetInCU: 0xBEEE, offset: 0xBEEE, size: 0x8, addend: 0x0, symName: __ZNSt3__16vectorINS_4pairINS_12basic_stringIcNS_11char_traitsIcEENS_9allocatorIcEEEENS1_IiiEEEENS5_IS9_EEEixB7v160006Em, symObjAddr: 0x77C, symBinAddr: 0x100003878, symSize: 0x24 }
  - { offsetInCU: 0xBF24, offset: 0xBF24, size: 0x8, addend: 0x0, symName: __ZNSt3__16vectorINS_4pairINS_12basic_stringIcNS_11char_traitsIcEENS_9allocatorIcEEEENS1_IiiEEEENS5_IS9_EEED1B7v160006Ev, symObjAddr: 0x7A0, symBinAddr: 0x10000389C, symSize: 0x2C }
  - { offsetInCU: 0xBF4D, offset: 0xBF4D, size: 0x8, addend: 0x0, symName: __ZNSt3__14pairINS_12basic_stringIcNS_11char_traitsIcEENS_9allocatorIcEEEENS0_IiiEEED2Ev, symObjAddr: 0x7CC, symBinAddr: 0x1000038C8, symSize: 0x2C }
  - { offsetInCU: 0xBF78, offset: 0xBF78, size: 0x8, addend: 0x0, symName: __ZNSt3__16vectorINS_4pairINS_12basic_stringIcNS_11char_traitsIcEENS_9allocatorIcEEEENS1_IiiEEEENS5_IS9_EEEC2B7v160006Ev, symObjAddr: 0x7F8, symBinAddr: 0x1000038F4, symSize: 0x4C }
  - { offsetInCU: 0xBFAB, offset: 0xBFAB, size: 0x8, addend: 0x0, symName: __ZNSt3__117__compressed_pairIPNS_4pairINS_12basic_stringIcNS_11char_traitsIcEENS_9allocatorIcEEEENS1_IiiEEEENS5_IS9_EEEC1B7v160006IDnNS_18__default_init_tagEEEOT_OT0_, symObjAddr: 0x844, symBinAddr: 0x100003940, symSize: 0x3C }
  - { offsetInCU: 0xC002, offset: 0xC002, size: 0x8, addend: 0x0, symName: __ZNSt3__117__compressed_pairIPNS_4pairINS_12basic_stringIcNS_11char_traitsIcEENS_9allocatorIcEEEENS1_IiiEEEENS5_IS9_EEEC2B7v160006IDnNS_18__default_init_tagEEEOT_OT0_, symObjAddr: 0x890, symBinAddr: 0x10000398C, symSize: 0x40 }
  - { offsetInCU: 0xC059, offset: 0xC059, size: 0x8, addend: 0x0, symName: __ZNSt3__122__compressed_pair_elemIPNS_4pairINS_12basic_stringIcNS_11char_traitsIcEENS_9allocatorIcEEEENS1_IiiEEEELi0ELb0EEC2B7v160006IDnvEEOT_, symObjAddr: 0x8D0, symBinAddr: 0x1000039CC, symSize: 0x1C }
  - { offsetInCU: 0xC09A, offset: 0xC09A, size: 0x8, addend: 0x0, symName: __ZNSt3__122__compressed_pair_elemINS_9allocatorINS_4pairINS_12basic_stringIcNS_11char_traitsIcEENS1_IcEEEENS2_IiiEEEEEELi1ELb1EEC2B7v160006ENS_18__default_init_tagE, symObjAddr: 0x8EC, symBinAddr: 0x1000039E8, symSize: 0x2C }
  - { offsetInCU: 0xC0CD, offset: 0xC0CD, size: 0x8, addend: 0x0, symName: __ZNSt3__19allocatorINS_4pairINS_12basic_stringIcNS_11char_traitsIcEENS0_IcEEEENS1_IiiEEEEEC2B7v160006Ev, symObjAddr: 0x918, symBinAddr: 0x100003A14, symSize: 0x2C }
  - { offsetInCU: 0xC0F6, offset: 0xC0F6, size: 0x8, addend: 0x0, symName: __ZNSt3__116__non_trivial_ifILb1ENS_9allocatorINS_4pairINS_12basic_stringIcNS_11char_traitsIcEENS1_IcEEEENS2_IiiEEEEEEEC2B7v160006Ev, symObjAddr: 0x944, symBinAddr: 0x100003A40, symSize: 0x14 }
  - { offsetInCU: 0xC11F, offset: 0xC11F, size: 0x8, addend: 0x0, symName: __ZNSt3__16vectorINS_4pairINS_12basic_stringIcNS_11char_traitsIcEENS_9allocatorIcEEEENS1_IiiEEEENS5_IS9_EEED2B7v160006Ev, symObjAddr: 0x958, symBinAddr: 0x100003A54, symSize: 0x3C }
  - { offsetInCU: 0xC148, offset: 0xC148, size: 0x8, addend: 0x0, symName: __ZNSt3__16vectorINS_4pairINS_12basic_stringIcNS_11char_traitsIcEENS_9allocatorIcEEEENS1_IiiEEEENS5_IS9_EEE16__destroy_vectorC1ERSB_, symObjAddr: 0x994, symBinAddr: 0x100003A90, symSize: 0x34 }
  - { offsetInCU: 0xC180, offset: 0xC180, size: 0x8, addend: 0x0, symName: __ZNSt3__16vectorINS_4pairINS_12basic_stringIcNS_11char_traitsIcEENS_9allocatorIcEEEENS1_IiiEEEENS5_IS9_EEE16__destroy_vectorclB7v160006Ev, symObjAddr: 0x9C8, symBinAddr: 0x100003AC4, symSize: 0x9C }
  - { offsetInCU: 0xC1A5, offset: 0xC1A5, size: 0x8, addend: 0x0, symName: __ZNSt3__16vectorINS_4pairINS_12basic_stringIcNS_11char_traitsIcEENS_9allocatorIcEEEENS1_IiiEEEENS5_IS9_EEE16__destroy_vectorC2ERSB_, symObjAddr: 0xA64, symBinAddr: 0x100003B60, symSize: 0x20 }
  - { offsetInCU: 0xC1DD, offset: 0xC1DD, size: 0x8, addend: 0x0, symName: __ZNKSt3__16vectorINS_4pairINS_12basic_stringIcNS_11char_traitsIcEENS_9allocatorIcEEEENS1_IiiEEEENS5_IS9_EEE17__annotate_deleteB7v160006Ev, symObjAddr: 0xA84, symBinAddr: 0x100003B80, symSize: 0xB8 }
  - { offsetInCU: 0xC202, offset: 0xC202, size: 0x8, addend: 0x0, symName: __ZNSt3__16vectorINS_4pairINS_12basic_stringIcNS_11char_traitsIcEENS_9allocatorIcEEEENS1_IiiEEEENS5_IS9_EEE7__clearB7v160006Ev, symObjAddr: 0xB4C, symBinAddr: 0x100003C48, symSize: 0x28 }
  - { offsetInCU: 0xC227, offset: 0xC227, size: 0x8, addend: 0x0, symName: __ZNSt3__116allocator_traitsINS_9allocatorINS_4pairINS_12basic_stringIcNS_11char_traitsIcEENS1_IcEEEENS2_IiiEEEEEEE10deallocateB7v160006ERSA_PS9_m, symObjAddr: 0xB74, symBinAddr: 0x100003C70, symSize: 0x34 }
  - { offsetInCU: 0xC269, offset: 0xC269, size: 0x8, addend: 0x0, symName: __ZNSt3__16vectorINS_4pairINS_12basic_stringIcNS_11char_traitsIcEENS_9allocatorIcEEEENS1_IiiEEEENS5_IS9_EEE7__allocB7v160006Ev, symObjAddr: 0xBA8, symBinAddr: 0x100003CA4, symSize: 0x28 }
  - { offsetInCU: 0xC28E, offset: 0xC28E, size: 0x8, addend: 0x0, symName: __ZNKSt3__16vectorINS_4pairINS_12basic_stringIcNS_11char_traitsIcEENS_9allocatorIcEEEENS1_IiiEEEENS5_IS9_EEE8capacityB7v160006Ev, symObjAddr: 0xBD0, symBinAddr: 0x100003CCC, symSize: 0x40 }
  - { offsetInCU: 0xC2B3, offset: 0xC2B3, size: 0x8, addend: 0x0, symName: __ZNKSt3__16vectorINS_4pairINS_12basic_stringIcNS_11char_traitsIcEENS_9allocatorIcEEEENS1_IiiEEEENS5_IS9_EEE31__annotate_contiguous_containerB7v160006EPKvSD_SD_SD_, symObjAddr: 0xC10, symBinAddr: 0x100003D0C, symSize: 0x20 }
  - { offsetInCU: 0xC308, offset: 0xC308, size: 0x8, addend: 0x0, symName: __ZNKSt3__16vectorINS_4pairINS_12basic_stringIcNS_11char_traitsIcEENS_9allocatorIcEEEENS1_IiiEEEENS5_IS9_EEE4dataB7v160006Ev, symObjAddr: 0xC30, symBinAddr: 0x100003D2C, symSize: 0x28 }
  - { offsetInCU: 0xC32D, offset: 0xC32D, size: 0x8, addend: 0x0, symName: __ZNSt3__16vectorINS_4pairINS_12basic_stringIcNS_11char_traitsIcEENS_9allocatorIcEEEENS1_IiiEEEENS5_IS9_EEE22__base_destruct_at_endB7v160006EPS9_, symObjAddr: 0xC6C, symBinAddr: 0x100003D68, symSize: 0xA0 }
  - { offsetInCU: 0xC370, offset: 0xC370, size: 0x8, addend: 0x0, symName: __ZNSt3__116allocator_traitsINS_9allocatorINS_4pairINS_12basic_stringIcNS_11char_traitsIcEENS1_IcEEEENS2_IiiEEEEEEE7destroyB7v160006IS9_vEEvRSA_PT_, symObjAddr: 0xD0C, symBinAddr: 0x100003E08, symSize: 0x2C }
  - { offsetInCU: 0xC3AD, offset: 0xC3AD, size: 0x8, addend: 0x0, symName: __ZNSt3__19allocatorINS_4pairINS_12basic_stringIcNS_11char_traitsIcEENS0_IcEEEENS1_IiiEEEEE7destroyB7v160006EPS8_, symObjAddr: 0xD38, symBinAddr: 0x100003E34, symSize: 0x28 }
  - { offsetInCU: 0xC3E0, offset: 0xC3E0, size: 0x8, addend: 0x0, symName: __ZNSt3__19allocatorINS_4pairINS_12basic_stringIcNS_11char_traitsIcEENS0_IcEEEENS1_IiiEEEEE10deallocateB7v160006EPS8_m, symObjAddr: 0xD60, symBinAddr: 0x100003E5C, symSize: 0x70 }
  - { offsetInCU: 0xC421, offset: 0xC421, size: 0x8, addend: 0x0, symName: __ZNSt3__117__compressed_pairIPNS_4pairINS_12basic_stringIcNS_11char_traitsIcEENS_9allocatorIcEEEENS1_IiiEEEENS5_IS9_EEE6secondB7v160006Ev, symObjAddr: 0xE58, symBinAddr: 0x100003F54, symSize: 0x24 }
  - { offsetInCU: 0xC446, offset: 0xC446, size: 0x8, addend: 0x0, symName: __ZNSt3__122__compressed_pair_elemINS_9allocatorINS_4pairINS_12basic_stringIcNS_11char_traitsIcEENS1_IcEEEENS2_IiiEEEEEELi1ELb1EE5__getB7v160006Ev, symObjAddr: 0xE7C, symBinAddr: 0x100003F78, symSize: 0x14 }
  - { offsetInCU: 0xC46B, offset: 0xC46B, size: 0x8, addend: 0x0, symName: __ZNKSt3__16vectorINS_4pairINS_12basic_stringIcNS_11char_traitsIcEENS_9allocatorIcEEEENS1_IiiEEEENS5_IS9_EEE9__end_capB7v160006Ev, symObjAddr: 0xE90, symBinAddr: 0x100003F8C, symSize: 0x28 }
  - { offsetInCU: 0xC490, offset: 0xC490, size: 0x8, addend: 0x0, symName: __ZNKSt3__117__compressed_pairIPNS_4pairINS_12basic_stringIcNS_11char_traitsIcEENS_9allocatorIcEEEENS1_IiiEEEENS5_IS9_EEE5firstB7v160006Ev, symObjAddr: 0xEB8, symBinAddr: 0x100003FB4, symSize: 0x24 }
  - { offsetInCU: 0xC4B5, offset: 0xC4B5, size: 0x8, addend: 0x0, symName: __ZNKSt3__122__compressed_pair_elemIPNS_4pairINS_12basic_stringIcNS_11char_traitsIcEENS_9allocatorIcEEEENS1_IiiEEEELi0ELb0EE5__getB7v160006Ev, symObjAddr: 0xEDC, symBinAddr: 0x100003FD8, symSize: 0x14 }
  - { offsetInCU: 0xC4DA, offset: 0xC4DA, size: 0x8, addend: 0x0, symName: __ZNSt3__14pairIiiEC2B7v160006ERKiS3_, symObjAddr: 0xEF0, symBinAddr: 0x100003FEC, symSize: 0x34 }
  - { offsetInCU: 0xC51F, offset: 0xC51F, size: 0x8, addend: 0x0, symName: __ZNSt3__112basic_stringIcNS_11char_traitsIcEENS_9allocatorIcEEEC2B7v160006IDnEEPKc, symObjAddr: 0xF24, symBinAddr: 0x100004020, symSize: 0x60 }
  - { offsetInCU: 0xC55C, offset: 0xC55C, size: 0x8, addend: 0x0, symName: __ZNSt3__117__compressed_pairINS_12basic_stringIcNS_11char_traitsIcEENS_9allocatorIcEEE5__repES5_EC1B7v160006INS_18__default_init_tagESA_EEOT_OT0_, symObjAddr: 0xF84, symBinAddr: 0x100004080, symSize: 0x3C }
  - { offsetInCU: 0xC5B3, offset: 0xC5B3, size: 0x8, addend: 0x0, symName: __ZNSt3__111char_traitsIcE6lengthEPKc, symObjAddr: 0xFC0, symBinAddr: 0x1000040BC, symSize: 0x48 }
  - { offsetInCU: 0xC5D6, offset: 0xC5D6, size: 0x8, addend: 0x0, symName: __ZNSt3__117__compressed_pairINS_12basic_stringIcNS_11char_traitsIcEENS_9allocatorIcEEE5__repES5_EC2B7v160006INS_18__default_init_tagESA_EEOT_OT0_, symObjAddr: 0x1018, symBinAddr: 0x100004114, symSize: 0x3C }
  - { offsetInCU: 0xC62D, offset: 0xC62D, size: 0x8, addend: 0x0, symName: __ZNSt3__122__compressed_pair_elemINS_12basic_stringIcNS_11char_traitsIcEENS_9allocatorIcEEE5__repELi0ELb0EEC2B7v160006ENS_18__default_init_tagE, symObjAddr: 0x1054, symBinAddr: 0x100004150, symSize: 0x14 }
  - { offsetInCU: 0xC660, offset: 0xC660, size: 0x8, addend: 0x0, symName: __ZNSt3__122__compressed_pair_elemINS_9allocatorIcEELi1ELb1EEC2B7v160006ENS_18__default_init_tagE, symObjAddr: 0x1068, symBinAddr: 0x100004164, symSize: 0x2C }
  - { offsetInCU: 0xC693, offset: 0xC693, size: 0x8, addend: 0x0, symName: __ZNSt3__19allocatorIcEC2B7v160006Ev, symObjAddr: 0x1094, symBinAddr: 0x100004190, symSize: 0x2C }
  - { offsetInCU: 0xC6BC, offset: 0xC6BC, size: 0x8, addend: 0x0, symName: __ZNSt3__116__non_trivial_ifILb1ENS_9allocatorIcEEEC2B7v160006Ev, symObjAddr: 0x10C0, symBinAddr: 0x1000041BC, symSize: 0x14 }
  - { offsetInCU: 0xC6E5, offset: 0xC6E5, size: 0x8, addend: 0x0, symName: __ZNSt3__14pairINS_12basic_stringIcNS_11char_traitsIcEENS_9allocatorIcEEEENS0_IiiEEEC2B7v160006ERKS6_RKS7_, symObjAddr: 0x10F8, symBinAddr: 0x1000041F4, symSize: 0x44 }
  - { offsetInCU: 0xC72A, offset: 0xC72A, size: 0x8, addend: 0x0, symName: __ZNSt3__16vectorINS_4pairINS_12basic_stringIcNS_11char_traitsIcEENS_9allocatorIcEEEENS1_IiiEEEENS5_IS9_EEE9__end_capB7v160006Ev, symObjAddr: 0x113C, symBinAddr: 0x100004238, symSize: 0x28 }
  - { offsetInCU: 0xC74F, offset: 0xC74F, size: 0x8, addend: 0x0, symName: __ZNSt3__16vectorINS_4pairINS_12basic_stringIcNS_11char_traitsIcEENS_9allocatorIcEEEENS1_IiiEEEENS5_IS9_EEE22__construct_one_at_endB7v160006IJS9_EEEvDpOT_, symObjAddr: 0x1164, symBinAddr: 0x100004260, symSize: 0x98 }
  - { offsetInCU: 0xC79C, offset: 0xC79C, size: 0x8, addend: 0x0, symName: __ZNSt3__16vectorINS_4pairINS_12basic_stringIcNS_11char_traitsIcEENS_9allocatorIcEEEENS1_IiiEEEENS5_IS9_EEE21__push_back_slow_pathIS9_EEvOT_, symObjAddr: 0x11FC, symBinAddr: 0x1000042F8, symSize: 0xE0 }
  - { offsetInCU: 0xC7F9, offset: 0xC7F9, size: 0x8, addend: 0x0, symName: __ZNSt3__117__compressed_pairIPNS_4pairINS_12basic_stringIcNS_11char_traitsIcEENS_9allocatorIcEEEENS1_IiiEEEENS5_IS9_EEE5firstB7v160006Ev, symObjAddr: 0x12DC, symBinAddr: 0x1000043D8, symSize: 0x24 }
  - { offsetInCU: 0xC81E, offset: 0xC81E, size: 0x8, addend: 0x0, symName: __ZNSt3__122__compressed_pair_elemIPNS_4pairINS_12basic_stringIcNS_11char_traitsIcEENS_9allocatorIcEEEENS1_IiiEEEELi0ELb0EE5__getB7v160006Ev, symObjAddr: 0x1300, symBinAddr: 0x1000043FC, symSize: 0x14 }
  - { offsetInCU: 0xC85C, offset: 0xC85C, size: 0x8, addend: 0x0, symName: __ZNSt3__16vectorINS_4pairINS_12basic_stringIcNS_11char_traitsIcEENS_9allocatorIcEEEENS1_IiiEEEENS5_IS9_EEE21_ConstructTransactionC1B7v160006ERSB_m, symObjAddr: 0x1314, symBinAddr: 0x100004410, symSize: 0x3C }
  - { offsetInCU: 0xC8A3, offset: 0xC8A3, size: 0x8, addend: 0x0, symName: __ZNSt3__116allocator_traitsINS_9allocatorINS_4pairINS_12basic_stringIcNS_11char_traitsIcEENS1_IcEEEENS2_IiiEEEEEEE9constructB7v160006IS9_JS9_EvEEvRSA_PT_DpOT0_, symObjAddr: 0x1350, symBinAddr: 0x10000444C, symSize: 0x34 }
  - { offsetInCU: 0xC8FA, offset: 0xC8FA, size: 0x8, addend: 0x0, symName: __ZNSt3__16vectorINS_4pairINS_12basic_stringIcNS_11char_traitsIcEENS_9allocatorIcEEEENS1_IiiEEEENS5_IS9_EEE21_ConstructTransactionD1B7v160006Ev, symObjAddr: 0x1384, symBinAddr: 0x100004480, symSize: 0x2C }
  - { offsetInCU: 0xC923, offset: 0xC923, size: 0x8, addend: 0x0, symName: __ZNSt3__16vectorINS_4pairINS_12basic_stringIcNS_11char_traitsIcEENS_9allocatorIcEEEENS1_IiiEEEENS5_IS9_EEE21_ConstructTransactionC2B7v160006ERSB_m, symObjAddr: 0x13B0, symBinAddr: 0x1000044AC, symSize: 0x44 }
  - { offsetInCU: 0xC96A, offset: 0xC96A, size: 0x8, addend: 0x0, symName: __ZNSt3__19allocatorINS_4pairINS_12basic_stringIcNS_11char_traitsIcEENS0_IcEEEENS1_IiiEEEEE9constructB7v160006IS8_JS8_EEEvPT_DpOT0_, symObjAddr: 0x13F4, symBinAddr: 0x1000044F0, symSize: 0x30 }
  - { offsetInCU: 0xC9BF, offset: 0xC9BF, size: 0x8, addend: 0x0, symName: __ZNSt3__14pairINS_12basic_stringIcNS_11char_traitsIcEENS_9allocatorIcEEEENS0_IiiEEEC1EOS8_, symObjAddr: 0x1424, symBinAddr: 0x100004520, symSize: 0x34 }
  - { offsetInCU: 0xC9F2, offset: 0xC9F2, size: 0x8, addend: 0x0, symName: __ZNSt3__14pairINS_12basic_stringIcNS_11char_traitsIcEENS_9allocatorIcEEEENS0_IiiEEEC2EOS8_, symObjAddr: 0x1458, symBinAddr: 0x100004554, symSize: 0x40 }
  - { offsetInCU: 0xCA25, offset: 0xCA25, size: 0x8, addend: 0x0, symName: __ZNSt3__16vectorINS_4pairINS_12basic_stringIcNS_11char_traitsIcEENS_9allocatorIcEEEENS1_IiiEEEENS5_IS9_EEE21_ConstructTransactionD2B7v160006Ev, symObjAddr: 0x1498, symBinAddr: 0x100004594, symSize: 0x20 }
  - { offsetInCU: 0xCA4D, offset: 0xCA4D, size: 0x8, addend: 0x0, symName: __ZNKSt3__16vectorINS_4pairINS_12basic_stringIcNS_11char_traitsIcEENS_9allocatorIcEEEENS1_IiiEEEENS5_IS9_EEE11__recommendB7v160006Em, symObjAddr: 0x14B8, symBinAddr: 0x1000045B4, symSize: 0xB4 }
  - { offsetInCU: 0xCAA1, offset: 0xCAA1, size: 0x8, addend: 0x0, symName: __ZNSt3__114__split_bufferINS_4pairINS_12basic_stringIcNS_11char_traitsIcEENS_9allocatorIcEEEENS1_IiiEEEERNS5_IS9_EEEC1EmmSB_, symObjAddr: 0x156C, symBinAddr: 0x100004668, symSize: 0x44 }
  - { offsetInCU: 0xCAF6, offset: 0xCAF6, size: 0x8, addend: 0x0, symName: __ZNSt3__114__split_bufferINS_4pairINS_12basic_stringIcNS_11char_traitsIcEENS_9allocatorIcEEEENS1_IiiEEEERNS5_IS9_EEED1Ev, symObjAddr: 0x16C8, symBinAddr: 0x1000047C4, symSize: 0x2C }
  - { offsetInCU: 0xCB20, offset: 0xCB20, size: 0x8, addend: 0x0, symName: __ZNKSt3__16vectorINS_4pairINS_12basic_stringIcNS_11char_traitsIcEENS_9allocatorIcEEEENS1_IiiEEEENS5_IS9_EEE8max_sizeEv, symObjAddr: 0x16F4, symBinAddr: 0x1000047F0, symSize: 0x74 }
  - { offsetInCU: 0xCB47, offset: 0xCB47, size: 0x8, addend: 0x0, symName: __ZNKSt3__16vectorINS_4pairINS_12basic_stringIcNS_11char_traitsIcEENS_9allocatorIcEEEENS1_IiiEEEENS5_IS9_EEE20__throw_length_errorB7v160006Ev, symObjAddr: 0x1768, symBinAddr: 0x100004864, symSize: 0x1C }
  - { offsetInCU: 0xCB76, offset: 0xCB76, size: 0x8, addend: 0x0, symName: __ZNSt3__116allocator_traitsINS_9allocatorINS_4pairINS_12basic_stringIcNS_11char_traitsIcEENS1_IcEEEENS2_IiiEEEEEEE8max_sizeB7v160006ISA_vEEmRKSA_, symObjAddr: 0x17DC, symBinAddr: 0x1000048D8, symSize: 0x24 }
  - { offsetInCU: 0xCBA4, offset: 0xCBA4, size: 0x8, addend: 0x0, symName: __ZNKSt3__16vectorINS_4pairINS_12basic_stringIcNS_11char_traitsIcEENS_9allocatorIcEEEENS1_IiiEEEENS5_IS9_EEE7__allocB7v160006Ev, symObjAddr: 0x1800, symBinAddr: 0x1000048FC, symSize: 0x28 }
  - { offsetInCU: 0xCBC9, offset: 0xCBC9, size: 0x8, addend: 0x0, symName: __ZNSt3__114numeric_limitsIlE3maxB7v160006Ev, symObjAddr: 0x1828, symBinAddr: 0x100004924, symSize: 0x14 }
  - { offsetInCU: 0xCBF1, offset: 0xCBF1, size: 0x8, addend: 0x0, symName: __ZNKSt3__16__lessImmEclB7v160006ERKmS3_, symObjAddr: 0x1890, symBinAddr: 0x10000498C, symSize: 0x34 }
  - { offsetInCU: 0xCC32, offset: 0xCC32, size: 0x8, addend: 0x0, symName: __ZNKSt3__19allocatorINS_4pairINS_12basic_stringIcNS_11char_traitsIcEENS0_IcEEEENS1_IiiEEEEE8max_sizeB7v160006Ev, symObjAddr: 0x18C4, symBinAddr: 0x1000049C0, symSize: 0x14 }
  - { offsetInCU: 0xCC57, offset: 0xCC57, size: 0x8, addend: 0x0, symName: __ZNKSt3__117__compressed_pairIPNS_4pairINS_12basic_stringIcNS_11char_traitsIcEENS_9allocatorIcEEEENS1_IiiEEEENS5_IS9_EEE6secondB7v160006Ev, symObjAddr: 0x18D8, symBinAddr: 0x1000049D4, symSize: 0x24 }
  - { offsetInCU: 0xCC7C, offset: 0xCC7C, size: 0x8, addend: 0x0, symName: __ZNKSt3__122__compressed_pair_elemINS_9allocatorINS_4pairINS_12basic_stringIcNS_11char_traitsIcEENS1_IcEEEENS2_IiiEEEEEELi1ELb1EE5__getB7v160006Ev, symObjAddr: 0x18FC, symBinAddr: 0x1000049F8, symSize: 0x14 }
  - { offsetInCU: 0xCCA1, offset: 0xCCA1, size: 0x8, addend: 0x0, symName: __ZNSt3__123__libcpp_numeric_limitsIlLb1EE3maxB7v160006Ev, symObjAddr: 0x1910, symBinAddr: 0x100004A0C, symSize: 0x8 }
  - { offsetInCU: 0xCCB5, offset: 0xCCB5, size: 0x8, addend: 0x0, symName: __ZNSt12length_errorC1B7v160006EPKc, symObjAddr: 0x197C, symBinAddr: 0x100004A78, symSize: 0x34 }
  - { offsetInCU: 0xCCEC, offset: 0xCCEC, size: 0x8, addend: 0x0, symName: __ZNSt12length_errorC2B7v160006EPKc, symObjAddr: 0x19B0, symBinAddr: 0x100004AAC, symSize: 0x4C }
  - { offsetInCU: 0xCD23, offset: 0xCD23, size: 0x8, addend: 0x0, symName: __ZNSt3__114__split_bufferINS_4pairINS_12basic_stringIcNS_11char_traitsIcEENS_9allocatorIcEEEENS1_IiiEEEERNS5_IS9_EEEC2EmmSB_, symObjAddr: 0x1A50, symBinAddr: 0x100004B4C, symSize: 0xD4 }
  - { offsetInCU: 0xCD95, offset: 0xCD95, size: 0x8, addend: 0x0, symName: __ZNSt3__117__compressed_pairIPNS_4pairINS_12basic_stringIcNS_11char_traitsIcEENS_9allocatorIcEEEENS1_IiiEEEERNS5_IS9_EEEC1B7v160006IDnSC_EEOT_OT0_, symObjAddr: 0x1B24, symBinAddr: 0x100004C20, symSize: 0x3C }
  - { offsetInCU: 0xCDEC, offset: 0xCDEC, size: 0x8, addend: 0x0, symName: __ZNSt3__114__split_bufferINS_4pairINS_12basic_stringIcNS_11char_traitsIcEENS_9allocatorIcEEEENS1_IiiEEEERNS5_IS9_EEE7__allocB7v160006Ev, symObjAddr: 0x1BA0, symBinAddr: 0x100004C9C, symSize: 0x28 }
  - { offsetInCU: 0xCE11, offset: 0xCE11, size: 0x8, addend: 0x0, symName: __ZNSt3__114__split_bufferINS_4pairINS_12basic_stringIcNS_11char_traitsIcEENS_9allocatorIcEEEENS1_IiiEEEERNS5_IS9_EEE9__end_capB7v160006Ev, symObjAddr: 0x1BC8, symBinAddr: 0x100004CC4, symSize: 0x28 }
  - { offsetInCU: 0xCE36, offset: 0xCE36, size: 0x8, addend: 0x0, symName: __ZNSt3__117__compressed_pairIPNS_4pairINS_12basic_stringIcNS_11char_traitsIcEENS_9allocatorIcEEEENS1_IiiEEEERNS5_IS9_EEEC2B7v160006IDnSC_EEOT_OT0_, symObjAddr: 0x1BF0, symBinAddr: 0x100004CEC, symSize: 0x48 }
  - { offsetInCU: 0xCE8D, offset: 0xCE8D, size: 0x8, addend: 0x0, symName: __ZNSt3__122__compressed_pair_elemIRNS_9allocatorINS_4pairINS_12basic_stringIcNS_11char_traitsIcEENS1_IcEEEENS2_IiiEEEEEELi1ELb0EEC2B7v160006ISB_vEEOT_, symObjAddr: 0x1C38, symBinAddr: 0x100004D34, symSize: 0x20 }
  - { offsetInCU: 0xCECE, offset: 0xCECE, size: 0x8, addend: 0x0, symName: __ZNSt3__19allocatorINS_4pairINS_12basic_stringIcNS_11char_traitsIcEENS0_IcEEEENS1_IiiEEEEE8allocateB7v160006Em, symObjAddr: 0x1C58, symBinAddr: 0x100004D54, symSize: 0x84 }
  - { offsetInCU: 0xCF01, offset: 0xCF01, size: 0x8, addend: 0x0, symName: __ZNSt3__117__compressed_pairIPNS_4pairINS_12basic_stringIcNS_11char_traitsIcEENS_9allocatorIcEEEENS1_IiiEEEERNS5_IS9_EEE6secondB7v160006Ev, symObjAddr: 0x1D5C, symBinAddr: 0x100004E58, symSize: 0x28 }
  - { offsetInCU: 0xCF26, offset: 0xCF26, size: 0x8, addend: 0x0, symName: __ZNSt3__122__compressed_pair_elemIRNS_9allocatorINS_4pairINS_12basic_stringIcNS_11char_traitsIcEENS1_IcEEEENS2_IiiEEEEEELi1ELb0EE5__getB7v160006Ev, symObjAddr: 0x1D84, symBinAddr: 0x100004E80, symSize: 0x18 }
  - { offsetInCU: 0xCF4B, offset: 0xCF4B, size: 0x8, addend: 0x0, symName: __ZNSt3__117__compressed_pairIPNS_4pairINS_12basic_stringIcNS_11char_traitsIcEENS_9allocatorIcEEEENS1_IiiEEEERNS5_IS9_EEE5firstB7v160006Ev, symObjAddr: 0x1D9C, symBinAddr: 0x100004E98, symSize: 0x24 }
  - { offsetInCU: 0xCF70, offset: 0xCF70, size: 0x8, addend: 0x0, symName: __ZNSt3__116reverse_iteratorIPNS_4pairINS_12basic_stringIcNS_11char_traitsIcEENS_9allocatorIcEEEENS1_IiiEEEEEC1B7v160006ESA_, symObjAddr: 0x1EF4, symBinAddr: 0x100004FF0, symSize: 0x34 }
  - { offsetInCU: 0xCFA7, offset: 0xCFA7, size: 0x8, addend: 0x0, symName: __ZNKSt3__116reverse_iteratorIPNS_4pairINS_12basic_stringIcNS_11char_traitsIcEENS_9allocatorIcEEEENS1_IiiEEEEE4baseB7v160006Ev, symObjAddr: 0x1F28, symBinAddr: 0x100005024, symSize: 0x18 }
  - { offsetInCU: 0xCFCC, offset: 0xCFCC, size: 0x8, addend: 0x0, symName: __ZNKSt3__16vectorINS_4pairINS_12basic_stringIcNS_11char_traitsIcEENS_9allocatorIcEEEENS1_IiiEEEENS5_IS9_EEE14__annotate_newB7v160006Em, symObjAddr: 0x1F7C, symBinAddr: 0x100005078, symSize: 0xAC }
  - { offsetInCU: 0xD000, offset: 0xD000, size: 0x8, addend: 0x0, symName: __ZNSt3__129_AllocatorDestroyRangeReverseINS_9allocatorINS_4pairINS_12basic_stringIcNS_11char_traitsIcEENS1_IcEEEENS2_IiiEEEEEENS_16reverse_iteratorIPS9_EEEC1B7v160006ERSA_RSD_SG_, symObjAddr: 0x2084, symBinAddr: 0x100005180, symSize: 0x44 }
  - { offsetInCU: 0xD056, offset: 0xD056, size: 0x8, addend: 0x0, symName: __ZNSt3__116allocator_traitsINS_9allocatorINS_4pairINS_12basic_stringIcNS_11char_traitsIcEENS1_IcEEEENS2_IiiEEEEEEE9constructB7v160006IS9_JRKS9_EvEEvRSA_PT_DpOT0_, symObjAddr: 0x2110, symBinAddr: 0x10000520C, symSize: 0x34 }
  - { offsetInCU: 0xD0AD, offset: 0xD0AD, size: 0x8, addend: 0x0, symName: __ZNKSt3__116reverse_iteratorIPNS_4pairINS_12basic_stringIcNS_11char_traitsIcEENS_9allocatorIcEEEENS1_IiiEEEEEdeB7v160006Ev, symObjAddr: 0x2168, symBinAddr: 0x100005264, symSize: 0x28 }
  - { offsetInCU: 0xD0E0, offset: 0xD0E0, size: 0x8, addend: 0x0, symName: __ZNSt3__116reverse_iteratorIPNS_4pairINS_12basic_stringIcNS_11char_traitsIcEENS_9allocatorIcEEEENS1_IiiEEEEEppB7v160006Ev, symObjAddr: 0x2190, symBinAddr: 0x10000528C, symSize: 0x20 }
  - { offsetInCU: 0xD105, offset: 0xD105, size: 0x8, addend: 0x0, symName: __ZNSt3__128__exception_guard_exceptionsINS_29_AllocatorDestroyRangeReverseINS_9allocatorINS_4pairINS_12basic_stringIcNS_11char_traitsIcEENS2_IcEEEENS3_IiiEEEEEENS_16reverse_iteratorIPSA_EEEEE10__completeB7v160006Ev, symObjAddr: 0x21B0, symBinAddr: 0x1000052AC, symSize: 0x1C }
  - { offsetInCU: 0xD12A, offset: 0xD12A, size: 0x8, addend: 0x0, symName: __ZNSt3__128__exception_guard_exceptionsINS_29_AllocatorDestroyRangeReverseINS_9allocatorINS_4pairINS_12basic_stringIcNS_11char_traitsIcEENS2_IcEEEENS3_IiiEEEEEENS_16reverse_iteratorIPSA_EEEEED1B7v160006Ev, symObjAddr: 0x21CC, symBinAddr: 0x1000052C8, symSize: 0x2C }
  - { offsetInCU: 0xD153, offset: 0xD153, size: 0x8, addend: 0x0, symName: __ZNSt3__128__exception_guard_exceptionsINS_29_AllocatorDestroyRangeReverseINS_9allocatorINS_4pairINS_12basic_stringIcNS_11char_traitsIcEENS2_IcEEEENS3_IiiEEEEEENS_16reverse_iteratorIPSA_EEEEEC1B7v160006ESF_, symObjAddr: 0x21F8, symBinAddr: 0x1000052F4, symSize: 0x34 }
  - { offsetInCU: 0xD18B, offset: 0xD18B, size: 0x8, addend: 0x0, symName: __ZNSt3__128__exception_guard_exceptionsINS_29_AllocatorDestroyRangeReverseINS_9allocatorINS_4pairINS_12basic_stringIcNS_11char_traitsIcEENS2_IcEEEENS3_IiiEEEEEENS_16reverse_iteratorIPSA_EEEEEC2B7v160006ESF_, symObjAddr: 0x222C, symBinAddr: 0x100005328, symSize: 0x30 }
  - { offsetInCU: 0xD1C3, offset: 0xD1C3, size: 0x8, addend: 0x0, symName: __ZNSt3__129_AllocatorDestroyRangeReverseINS_9allocatorINS_4pairINS_12basic_stringIcNS_11char_traitsIcEENS1_IcEEEENS2_IiiEEEEEENS_16reverse_iteratorIPS9_EEEC2B7v160006ERSA_RSD_SG_, symObjAddr: 0x225C, symBinAddr: 0x100005358, symSize: 0x38 }
  - { offsetInCU: 0xD219, offset: 0xD219, size: 0x8, addend: 0x0, symName: __ZNSt3__19allocatorINS_4pairINS_12basic_stringIcNS_11char_traitsIcEENS0_IcEEEENS1_IiiEEEEE9constructB7v160006IS8_JRKS8_EEEvPT_DpOT0_, symObjAddr: 0x2294, symBinAddr: 0x100005390, symSize: 0x30 }
  - { offsetInCU: 0xD26E, offset: 0xD26E, size: 0x8, addend: 0x0, symName: __ZNSt3__14pairINS_12basic_stringIcNS_11char_traitsIcEENS_9allocatorIcEEEENS0_IiiEEEC1ERKS8_, symObjAddr: 0x22C4, symBinAddr: 0x1000053C0, symSize: 0x34 }
  - { offsetInCU: 0xD2A1, offset: 0xD2A1, size: 0x8, addend: 0x0, symName: __ZNSt3__14pairINS_12basic_stringIcNS_11char_traitsIcEENS_9allocatorIcEEEENS0_IiiEEEC2ERKS8_, symObjAddr: 0x22F8, symBinAddr: 0x1000053F4, symSize: 0x40 }
  - { offsetInCU: 0xD2D9, offset: 0xD2D9, size: 0x8, addend: 0x0, symName: __ZNSt3__119__to_address_helperINS_16reverse_iteratorIPNS_4pairINS_12basic_stringIcNS_11char_traitsIcEENS_9allocatorIcEEEENS2_IiiEEEEEEvE6__callB7v160006ERKSC_, symObjAddr: 0x2338, symBinAddr: 0x100005434, symSize: 0x4C }
  - { offsetInCU: 0xD2FC, offset: 0xD2FC, size: 0x8, addend: 0x0, symName: __ZNKSt3__116reverse_iteratorIPNS_4pairINS_12basic_stringIcNS_11char_traitsIcEENS_9allocatorIcEEEENS1_IiiEEEEEptB7v160006Ev, symObjAddr: 0x2384, symBinAddr: 0x100005480, symSize: 0x24 }
  - { offsetInCU: 0xD321, offset: 0xD321, size: 0x8, addend: 0x0, symName: __ZNSt3__128__exception_guard_exceptionsINS_29_AllocatorDestroyRangeReverseINS_9allocatorINS_4pairINS_12basic_stringIcNS_11char_traitsIcEENS2_IcEEEENS3_IiiEEEEEENS_16reverse_iteratorIPSA_EEEEED2B7v160006Ev, symObjAddr: 0x23A8, symBinAddr: 0x1000054A4, symSize: 0x48 }
  - { offsetInCU: 0xD34A, offset: 0xD34A, size: 0x8, addend: 0x0, symName: __ZNKSt3__129_AllocatorDestroyRangeReverseINS_9allocatorINS_4pairINS_12basic_stringIcNS_11char_traitsIcEENS1_IcEEEENS2_IiiEEEEEENS_16reverse_iteratorIPS9_EEEclB7v160006Ev, symObjAddr: 0x23F0, symBinAddr: 0x1000054EC, symSize: 0xB4 }
  - { offsetInCU: 0xD370, offset: 0xD370, size: 0x8, addend: 0x0, symName: __ZNSt3__116reverse_iteratorINS0_IPNS_4pairINS_12basic_stringIcNS_11char_traitsIcEENS_9allocatorIcEEEENS1_IiiEEEEEEEC1B7v160006ESB_, symObjAddr: 0x2514, symBinAddr: 0x100005610, symSize: 0x3C }
  - { offsetInCU: 0xD3A7, offset: 0xD3A7, size: 0x8, addend: 0x0, symName: __ZNSt3__116reverse_iteratorINS0_IPNS_4pairINS_12basic_stringIcNS_11char_traitsIcEENS_9allocatorIcEEEENS1_IiiEEEEEEEppB7v160006Ev, symObjAddr: 0x25D4, symBinAddr: 0x1000056D0, symSize: 0x30 }
  - { offsetInCU: 0xD3CC, offset: 0xD3CC, size: 0x8, addend: 0x0, symName: __ZNKSt3__116reverse_iteratorINS0_IPNS_4pairINS_12basic_stringIcNS_11char_traitsIcEENS_9allocatorIcEEEENS1_IiiEEEEEEE4baseB7v160006Ev, symObjAddr: 0x2604, symBinAddr: 0x100005700, symSize: 0x24 }
  - { offsetInCU: 0xD3F6, offset: 0xD3F6, size: 0x8, addend: 0x0, symName: __ZNSt3__119__to_address_helperINS_16reverse_iteratorINS1_IPNS_4pairINS_12basic_stringIcNS_11char_traitsIcEENS_9allocatorIcEEEENS2_IiiEEEEEEEEvE6__callB7v160006ERKSD_, symObjAddr: 0x2628, symBinAddr: 0x100005724, symSize: 0x4C }
  - { offsetInCU: 0xD419, offset: 0xD419, size: 0x8, addend: 0x0, symName: __ZNKSt3__116reverse_iteratorINS0_IPNS_4pairINS_12basic_stringIcNS_11char_traitsIcEENS_9allocatorIcEEEENS1_IiiEEEEEEEptB7v160006Ev, symObjAddr: 0x2674, symBinAddr: 0x100005770, symSize: 0x24 }
  - { offsetInCU: 0xD43E, offset: 0xD43E, size: 0x8, addend: 0x0, symName: __ZNKSt3__116reverse_iteratorINS0_IPNS_4pairINS_12basic_stringIcNS_11char_traitsIcEENS_9allocatorIcEEEENS1_IiiEEEEEEEdeB7v160006Ev, symObjAddr: 0x2698, symBinAddr: 0x100005794, symSize: 0x34 }
  - { offsetInCU: 0xD471, offset: 0xD471, size: 0x8, addend: 0x0, symName: __ZNSt3__116reverse_iteratorIPNS_4pairINS_12basic_stringIcNS_11char_traitsIcEENS_9allocatorIcEEEENS1_IiiEEEEEmmB7v160006Ev, symObjAddr: 0x26CC, symBinAddr: 0x1000057C8, symSize: 0x20 }
  - { offsetInCU: 0xD496, offset: 0xD496, size: 0x8, addend: 0x0, symName: __ZNSt3__116reverse_iteratorINS0_IPNS_4pairINS_12basic_stringIcNS_11char_traitsIcEENS_9allocatorIcEEEENS1_IiiEEEEEEEC2B7v160006ESB_, symObjAddr: 0x26EC, symBinAddr: 0x1000057E8, symSize: 0x2C }
  - { offsetInCU: 0xD4CD, offset: 0xD4CD, size: 0x8, addend: 0x0, symName: __ZNSt3__116reverse_iteratorIPNS_4pairINS_12basic_stringIcNS_11char_traitsIcEENS_9allocatorIcEEEENS1_IiiEEEEEC2B7v160006ESA_, symObjAddr: 0x2718, symBinAddr: 0x100005814, symSize: 0x28 }
  - { offsetInCU: 0xD504, offset: 0xD504, size: 0x8, addend: 0x0, symName: __ZNSt3__114__split_bufferINS_4pairINS_12basic_stringIcNS_11char_traitsIcEENS_9allocatorIcEEEENS1_IiiEEEERNS5_IS9_EEED2Ev, symObjAddr: 0x2740, symBinAddr: 0x10000583C, symSize: 0x80 }
  - { offsetInCU: 0xD52F, offset: 0xD52F, size: 0x8, addend: 0x0, symName: __ZNSt3__114__split_bufferINS_4pairINS_12basic_stringIcNS_11char_traitsIcEENS_9allocatorIcEEEENS1_IiiEEEERNS5_IS9_EEE5clearB7v160006Ev, symObjAddr: 0x27C0, symBinAddr: 0x1000058BC, symSize: 0x28 }
  - { offsetInCU: 0xD554, offset: 0xD554, size: 0x8, addend: 0x0, symName: __ZNKSt3__114__split_bufferINS_4pairINS_12basic_stringIcNS_11char_traitsIcEENS_9allocatorIcEEEENS1_IiiEEEERNS5_IS9_EEE8capacityB7v160006Ev, symObjAddr: 0x27E8, symBinAddr: 0x1000058E4, symSize: 0x40 }
  - { offsetInCU: 0xD579, offset: 0xD579, size: 0x8, addend: 0x0, symName: __ZNSt3__114__split_bufferINS_4pairINS_12basic_stringIcNS_11char_traitsIcEENS_9allocatorIcEEEENS1_IiiEEEERNS5_IS9_EEE17__destruct_at_endB7v160006EPS9_, symObjAddr: 0x2828, symBinAddr: 0x100005924, symSize: 0x2C }
  - { offsetInCU: 0xD5AB, offset: 0xD5AB, size: 0x8, addend: 0x0, symName: __ZNSt3__114__split_bufferINS_4pairINS_12basic_stringIcNS_11char_traitsIcEENS_9allocatorIcEEEENS1_IiiEEEERNS5_IS9_EEE17__destruct_at_endB7v160006EPS9_NS_17integral_constantIbLb0EEE, symObjAddr: 0x2854, symBinAddr: 0x100005950, symSize: 0x94 }
  - { offsetInCU: 0xD5EA, offset: 0xD5EA, size: 0x8, addend: 0x0, symName: __ZNKSt3__114__split_bufferINS_4pairINS_12basic_stringIcNS_11char_traitsIcEENS_9allocatorIcEEEENS1_IiiEEEERNS5_IS9_EEE9__end_capB7v160006Ev, symObjAddr: 0x28E8, symBinAddr: 0x1000059E4, symSize: 0x28 }
  - { offsetInCU: 0xD60F, offset: 0xD60F, size: 0x8, addend: 0x0, symName: __ZNKSt3__117__compressed_pairIPNS_4pairINS_12basic_stringIcNS_11char_traitsIcEENS_9allocatorIcEEEENS1_IiiEEEERNS5_IS9_EEE5firstB7v160006Ev, symObjAddr: 0x2910, symBinAddr: 0x100005A0C, symSize: 0x24 }
  - { offsetInCU: 0xD634, offset: 0xD634, size: 0x8, addend: 0x0, symName: __ZNSt3__16vectorINS_4pairINS_12basic_stringIcNS_11char_traitsIcEENS_9allocatorIcEEEENS1_IiiEEEENS5_IS9_EEE11__make_iterB7v160006EPS9_, symObjAddr: 0x2934, symBinAddr: 0x100005A30, symSize: 0x34 }
  - { offsetInCU: 0xD668, offset: 0xD668, size: 0x8, addend: 0x0, symName: __ZNSt3__111__wrap_iterIPNS_4pairINS_12basic_stringIcNS_11char_traitsIcEENS_9allocatorIcEEEENS1_IiiEEEEEC1B7v160006EPKvSA_, symObjAddr: 0x2968, symBinAddr: 0x100005A64, symSize: 0x3C }
  - { offsetInCU: 0xD6AD, offset: 0xD6AD, size: 0x8, addend: 0x0, symName: __ZNSt3__111__wrap_iterIPNS_4pairINS_12basic_stringIcNS_11char_traitsIcEENS_9allocatorIcEEEENS1_IiiEEEEEC2B7v160006EPKvSA_, symObjAddr: 0x29A4, symBinAddr: 0x100005AA0, symSize: 0x24 }
  - { offsetInCU: 0xD6F2, offset: 0xD6F2, size: 0x8, addend: 0x0, symName: __ZNSt3__18_IterOpsINS_17_ClassicAlgPolicyEE4nextB7v160006INS_11__wrap_iterIPNS_4pairINS_12basic_stringIcNS_11char_traitsIcEENS_9allocatorIcEEEENS5_IiiEEEEEEEET_SG_SG_, symObjAddr: 0x2C58, symBinAddr: 0x100005D54, symSize: 0x20 }
  - { offsetInCU: 0xD728, offset: 0xD728, size: 0x8, addend: 0x0, symName: __ZNKSt3__111__wrap_iterIPNS_4pairINS_12basic_stringIcNS_11char_traitsIcEENS_9allocatorIcEEEENS1_IiiEEEEE4baseB7v160006Ev, symObjAddr: 0x2E64, symBinAddr: 0x100005F60, symSize: 0x18 }
  - { offsetInCU: 0xD74D, offset: 0xD74D, size: 0x8, addend: 0x0, symName: __ZNKSt3__111__wrap_iterIPNS_4pairINS_12basic_stringIcNS_11char_traitsIcEENS_9allocatorIcEEEENS1_IiiEEEEEdeB7v160006Ev, symObjAddr: 0x2FCC, symBinAddr: 0x1000060C8, symSize: 0x18 }
  - { offsetInCU: 0xD772, offset: 0xD772, size: 0x8, addend: 0x0, symName: __ZNSt3__18_IterOpsINS_17_ClassicAlgPolicyEE9iter_swapB7v160006IRNS_11__wrap_iterIPNS_4pairINS_12basic_stringIcNS_11char_traitsIcEENS_9allocatorIcEEEENS5_IiiEEEEEESG_EEvOT_OT0_, symObjAddr: 0x2FE4, symBinAddr: 0x1000060E0, symSize: 0x44 }
  - { offsetInCU: 0xD7B5, offset: 0xD7B5, size: 0x8, addend: 0x0, symName: __ZNSt3__111__wrap_iterIPNS_4pairINS_12basic_stringIcNS_11char_traitsIcEENS_9allocatorIcEEEENS1_IiiEEEEEppB7v160006Ev, symObjAddr: 0x363C, symBinAddr: 0x100006738, symSize: 0x20 }
  - { offsetInCU: 0xD7DA, offset: 0xD7DA, size: 0x8, addend: 0x0, symName: __ZNKSt3__111__wrap_iterIPNS_4pairINS_12basic_stringIcNS_11char_traitsIcEENS_9allocatorIcEEEENS1_IiiEEEEEplB7v160006El, symObjAddr: 0x36F4, symBinAddr: 0x1000067F0, symSize: 0x3C }
  - { offsetInCU: 0xD81B, offset: 0xD81B, size: 0x8, addend: 0x0, symName: __ZNSt3__111__wrap_iterIPNS_4pairINS_12basic_stringIcNS_11char_traitsIcEENS_9allocatorIcEEEENS1_IiiEEEEEpLB7v160006El, symObjAddr: 0x3730, symBinAddr: 0x10000682C, symSize: 0x28 }
  - { offsetInCU: 0xD84E, offset: 0xD84E, size: 0x8, addend: 0x0, symName: __ZNSt3__14pairINS_12basic_stringIcNS_11char_traitsIcEENS_9allocatorIcEEEENS0_IiiEEE4swapB7v160006ERS8_, symObjAddr: 0x37D4, symBinAddr: 0x1000068D0, symSize: 0x44 }
  - { offsetInCU: 0xD881, offset: 0xD881, size: 0x8, addend: 0x0, symName: __ZNSt3__112basic_stringIcNS_11char_traitsIcEENS_9allocatorIcEEE4swapB7v160006ERS5_, symObjAddr: 0x3870, symBinAddr: 0x10000696C, symSize: 0xA8 }
  - { offsetInCU: 0xD8B7, offset: 0xD8B7, size: 0x8, addend: 0x0, symName: __ZNKSt3__112basic_stringIcNS_11char_traitsIcEENS_9allocatorIcEEE9__is_longB7v160006Ev, symObjAddr: 0x3918, symBinAddr: 0x100006A14, symSize: 0x74 }
  - { offsetInCU: 0xD8DC, offset: 0xD8DC, size: 0x8, addend: 0x0, symName: __ZNSt3__117__compressed_pairINS_12basic_stringIcNS_11char_traitsIcEENS_9allocatorIcEEE5__repES5_E5firstB7v160006Ev, symObjAddr: 0x3A04, symBinAddr: 0x100006B00, symSize: 0x24 }
  - { offsetInCU: 0xD901, offset: 0xD901, size: 0x8, addend: 0x0, symName: __ZNSt3__112basic_stringIcNS_11char_traitsIcEENS_9allocatorIcEEE7__allocB7v160006Ev, symObjAddr: 0x3A54, symBinAddr: 0x100006B50, symSize: 0x24 }
  - { offsetInCU: 0xD926, offset: 0xD926, size: 0x8, addend: 0x0, symName: __ZNKSt3__117__compressed_pairINS_12basic_stringIcNS_11char_traitsIcEENS_9allocatorIcEEE5__repES5_E5firstB7v160006Ev, symObjAddr: 0x3A78, symBinAddr: 0x100006B74, symSize: 0x24 }
  - { offsetInCU: 0xD94B, offset: 0xD94B, size: 0x8, addend: 0x0, symName: __ZNKSt3__122__compressed_pair_elemINS_12basic_stringIcNS_11char_traitsIcEENS_9allocatorIcEEE5__repELi0ELb0EE5__getB7v160006Ev, symObjAddr: 0x3A9C, symBinAddr: 0x100006B98, symSize: 0x14 }
  - { offsetInCU: 0xD970, offset: 0xD970, size: 0x8, addend: 0x0, symName: __ZNSt3__122__compressed_pair_elemINS_12basic_stringIcNS_11char_traitsIcEENS_9allocatorIcEEE5__repELi0ELb0EE5__getB7v160006Ev, symObjAddr: 0x3AB0, symBinAddr: 0x100006BAC, symSize: 0x14 }
  - { offsetInCU: 0xD995, offset: 0xD995, size: 0x8, addend: 0x0, symName: __ZNSt3__117__compressed_pairINS_12basic_stringIcNS_11char_traitsIcEENS_9allocatorIcEEE5__repES5_E6secondB7v160006Ev, symObjAddr: 0x3AD8, symBinAddr: 0x100006BD4, symSize: 0x24 }
  - { offsetInCU: 0xD9BA, offset: 0xD9BA, size: 0x8, addend: 0x0, symName: __ZNSt3__122__compressed_pair_elemINS_9allocatorIcEELi1ELb1EE5__getB7v160006Ev, symObjAddr: 0x3AFC, symBinAddr: 0x100006BF8, symSize: 0x14 }
  - { offsetInCU: 0xD9DF, offset: 0xD9DF, size: 0x8, addend: 0x0, symName: __ZNSt3__14pairIiiE4swapB7v160006ERS1_, symObjAddr: 0x3B10, symBinAddr: 0x100006C0C, symSize: 0x44 }
  - { offsetInCU: 0xDA13, offset: 0xDA13, size: 0x8, addend: 0x0, symName: __ZNSt3__18_IterOpsINS_17_ClassicAlgPolicyEE11__iter_moveB7v160006IRNS_11__wrap_iterIPNS_4pairINS_12basic_stringIcNS_11char_traitsIcEENS_9allocatorIcEEEENS5_IiiEEEEEEEENS_9enable_ifIXsr12is_referenceIDTdeclsr3stdE7declvalIRT_EEEEE5valueEDTclsr3stdE4movedeclsr3stdE7declvalISJ_EEEEE4typeEOSI_, symObjAddr: 0x3B90, symBinAddr: 0x100006C8C, symSize: 0x28 }
  - { offsetInCU: 0xDA3F, offset: 0xDA3F, size: 0x8, addend: 0x0, symName: __ZNSt3__14pairINS_12basic_stringIcNS_11char_traitsIcEENS_9allocatorIcEEEENS0_IiiEEEaSB7v160006ERKS8_, symObjAddr: 0x3BB8, symBinAddr: 0x100006CB4, symSize: 0x48 }
  - { offsetInCU: 0xDA72, offset: 0xDA72, size: 0x8, addend: 0x0, symName: __ZNSt3__18_IterOpsINS_17_ClassicAlgPolicyEE25__validate_iter_referenceB7v160006IRNS_11__wrap_iterIPNS_4pairINS_12basic_stringIcNS_11char_traitsIcEENS_9allocatorIcEEEENS5_IiiEEEEEEEEvv, symObjAddr: 0x3C00, symBinAddr: 0x100006CFC, symSize: 0x4 }
  - { offsetInCU: 0xDA90, offset: 0xDA90, size: 0x8, addend: 0x0, symName: __ZNSt3__14pairIiiEaSB7v160006ERKS1_, symObjAddr: 0x3C04, symBinAddr: 0x100006D00, symSize: 0x30 }
  - { offsetInCU: 0xDAC3, offset: 0xDAC3, size: 0x8, addend: 0x0, symName: __ZNSt3__111__wrap_iterIPNS_4pairINS_12basic_stringIcNS_11char_traitsIcEENS_9allocatorIcEEEENS1_IiiEEEEEmmB7v160006Ev, symObjAddr: 0x3DA8, symBinAddr: 0x100006EA4, symSize: 0x20 }
  - { offsetInCU: 0xDB02, offset: 0xDB02, size: 0x8, addend: 0x0, symName: __ZNSt3__116_UnwrapAlgPolicyIRPFbNS_4pairINS_12basic_stringIcNS_11char_traitsIcEENS_9allocatorIcEEEENS1_IiiEEEES9_EE10__get_compB7v160006ESC_, symObjAddr: 0x4320, symBinAddr: 0x10000741C, symSize: 0x14 }
  - { offsetInCU: 0xDB25, offset: 0xDB25, size: 0x8, addend: 0x0, symName: __ZNSt3__18_IterOpsINS_17_ClassicAlgPolicyEE9iter_swapB7v160006IRPNS_4pairINS_12basic_stringIcNS_11char_traitsIcEENS_9allocatorIcEEEENS4_IiiEEEESE_EEvOT_OT0_, symObjAddr: 0x5148, symBinAddr: 0x100008244, symSize: 0x34 }
  - { offsetInCU: 0xDB68, offset: 0xDB68, size: 0x8, addend: 0x0, symName: __ZNSt3__18_IterOpsINS_17_ClassicAlgPolicyEE11__iter_moveB7v160006IRPNS_4pairINS_12basic_stringIcNS_11char_traitsIcEENS_9allocatorIcEEEENS4_IiiEEEEEENS_9enable_ifIXsr12is_referenceIDTdeclsr3stdE7declvalIRT_EEEEE5valueEDTclsr3stdE4movedeclsr3stdE7declvalISH_EEEEE4typeEOSG_, symObjAddr: 0x62EC, symBinAddr: 0x1000093E8, symSize: 0x28 }
  - { offsetInCU: 0xDB94, offset: 0xDB94, size: 0x8, addend: 0x0, symName: __ZNSt3__18_IterOpsINS_17_ClassicAlgPolicyEE25__validate_iter_referenceB7v160006IRPNS_4pairINS_12basic_stringIcNS_11char_traitsIcEENS_9allocatorIcEEEENS4_IiiEEEEEEvv, symObjAddr: 0x6314, symBinAddr: 0x100009410, symSize: 0x4 }
  - { offsetInCU: 0xDBB2, offset: 0xDBB2, size: 0x8, addend: 0x0, symName: __ZNSt3__18_IterOpsINS_17_ClassicAlgPolicyEE4nextB7v160006IPNS_4pairINS_12basic_stringIcNS_11char_traitsIcEENS_9allocatorIcEEEENS4_IiiEEEEEET_SE_SE_, symObjAddr: 0x6318, symBinAddr: 0x100009414, symSize: 0x18 }
  - { offsetInCU: 0xDBE8, offset: 0xDBE8, size: 0x8, addend: 0x0, symName: __ZNSt3__118__unwrap_iter_implINS_11__wrap_iterIPNS_4pairINS_12basic_stringIcNS_11char_traitsIcEENS_9allocatorIcEEEENS2_IiiEEEEEELb1EE8__unwrapB7v160006ESC_, symObjAddr: 0x7524, symBinAddr: 0x10000A620, symSize: 0x28 }
  - { offsetInCU: 0xDC15, offset: 0xDC15, size: 0x8, addend: 0x0, symName: __ZNSt3__119__to_address_helperINS_11__wrap_iterIPNS_4pairINS_12basic_stringIcNS_11char_traitsIcEENS_9allocatorIcEEEENS2_IiiEEEEEEvE6__callB7v160006ERKSC_, symObjAddr: 0x7570, symBinAddr: 0x10000A66C, symSize: 0x30 }
  - { offsetInCU: 0xDC38, offset: 0xDC38, size: 0x8, addend: 0x0, symName: __ZNSt3__114pointer_traitsINS_11__wrap_iterIPNS_4pairINS_12basic_stringIcNS_11char_traitsIcEENS_9allocatorIcEEEENS2_IiiEEEEEEE10to_addressB7v160006ESC_, symObjAddr: 0x75A0, symBinAddr: 0x10000A69C, symSize: 0x2C }
  - { offsetInCU: 0xDC5C, offset: 0xDC5C, size: 0x8, addend: 0x0, symName: __ZNKSt3__112basic_stringIcNS_11char_traitsIcEENS_9allocatorIcEEE4dataB7v160006Ev, symObjAddr: 0x77C0, symBinAddr: 0x10000A8BC, symSize: 0x28 }
  - { offsetInCU: 0xDC81, offset: 0xDC81, size: 0x8, addend: 0x0, symName: __ZNKSt3__112basic_stringIcNS_11char_traitsIcEENS_9allocatorIcEEE4sizeB7v160006Ev, symObjAddr: 0x77E8, symBinAddr: 0x10000A8E4, symSize: 0x54 }
  - { offsetInCU: 0xDCC4, offset: 0xDCC4, size: 0x8, addend: 0x0, symName: __ZNKSt3__113basic_ostreamIcNS_11char_traitsIcEEE6sentrycvbB7v160006Ev, symObjAddr: 0x783C, symBinAddr: 0x10000A938, symSize: 0x1C }
  - { offsetInCU: 0xDCE9, offset: 0xDCE9, size: 0x8, addend: 0x0, symName: __ZNSt3__119ostreambuf_iteratorIcNS_11char_traitsIcEEEC1B7v160006ERNS_13basic_ostreamIcS2_EE, symObjAddr: 0x7AA0, symBinAddr: 0x10000AB9C, symSize: 0x34 }
  - { offsetInCU: 0xDD20, offset: 0xDD20, size: 0x8, addend: 0x0, symName: __ZNKSt3__18ios_base5flagsB7v160006Ev, symObjAddr: 0x7AD4, symBinAddr: 0x10000ABD0, symSize: 0x18 }
  - { offsetInCU: 0xDD46, offset: 0xDD46, size: 0x8, addend: 0x0, symName: __ZNKSt3__19basic_iosIcNS_11char_traitsIcEEE4fillB7v160006Ev, symObjAddr: 0x7AEC, symBinAddr: 0x10000ABE8, symSize: 0x64 }
  - { offsetInCU: 0xDD6D, offset: 0xDD6D, size: 0x8, addend: 0x0, symName: __ZNKSt3__119ostreambuf_iteratorIcNS_11char_traitsIcEEE6failedB7v160006Ev, symObjAddr: 0x7B50, symBinAddr: 0x10000AC4C, symSize: 0x24 }
  - { offsetInCU: 0xDD92, offset: 0xDD92, size: 0x8, addend: 0x0, symName: __ZNSt3__19basic_iosIcNS_11char_traitsIcEEE8setstateB7v160006Ej, symObjAddr: 0x7B74, symBinAddr: 0x10000AC70, symSize: 0x2C }
  - { offsetInCU: 0xDDC6, offset: 0xDDC6, size: 0x8, addend: 0x0, symName: __ZNKSt3__18ios_base5widthB7v160006Ev, symObjAddr: 0x7BA0, symBinAddr: 0x10000AC9C, symSize: 0x18 }
  - { offsetInCU: 0xDDED, offset: 0xDDED, size: 0x8, addend: 0x0, symName: __ZNSt3__115basic_streambufIcNS_11char_traitsIcEEE5sputnB7v160006EPKcl, symObjAddr: 0x7BB8, symBinAddr: 0x10000ACB4, symSize: 0x3C }
  - { offsetInCU: 0xDE2E, offset: 0xDE2E, size: 0x8, addend: 0x0, symName: __ZNSt3__112basic_stringIcNS_11char_traitsIcEENS_9allocatorIcEEEC1B7v160006Emc, symObjAddr: 0x7BF4, symBinAddr: 0x10000ACF0, symSize: 0x3C }
  - { offsetInCU: 0xDE75, offset: 0xDE75, size: 0x8, addend: 0x0, symName: __ZNSt3__18ios_base5widthB7v160006El, symObjAddr: 0x7C30, symBinAddr: 0x10000AD2C, symSize: 0x2C }
  - { offsetInCU: 0xDEBA, offset: 0xDEBA, size: 0x8, addend: 0x0, symName: __ZNSt3__112basic_stringIcNS_11char_traitsIcEENS_9allocatorIcEEEC2B7v160006Emc, symObjAddr: 0x7C5C, symBinAddr: 0x10000AD58, symSize: 0x54 }
  - { offsetInCU: 0xDF01, offset: 0xDF01, size: 0x8, addend: 0x0, symName: __ZNSt3__119ostreambuf_iteratorIcNS_11char_traitsIcEEEC2B7v160006ERNS_13basic_ostreamIcS2_EE, symObjAddr: 0x7CB0, symBinAddr: 0x10000ADAC, symSize: 0x68 }
  - { offsetInCU: 0xDF37, offset: 0xDF37, size: 0x8, addend: 0x0, symName: __ZNKSt3__19basic_iosIcNS_11char_traitsIcEEE5rdbufB7v160006Ev, symObjAddr: 0x7D18, symBinAddr: 0x10000AE14, symSize: 0x24 }
  - { offsetInCU: 0xDF5E, offset: 0xDF5E, size: 0x8, addend: 0x0, symName: __ZNKSt3__18ios_base5rdbufB7v160006Ev, symObjAddr: 0x7D3C, symBinAddr: 0x10000AE38, symSize: 0x18 }
  - { offsetInCU: 0xDF83, offset: 0xDF83, size: 0x8, addend: 0x0, symName: __ZNSt3__111char_traitsIcE11eq_int_typeEii, symObjAddr: 0x7D54, symBinAddr: 0x10000AE50, symSize: 0x28 }
  - { offsetInCU: 0xDFB4, offset: 0xDFB4, size: 0x8, addend: 0x0, symName: __ZNSt3__111char_traitsIcE3eofEv, symObjAddr: 0x7D7C, symBinAddr: 0x10000AE78, symSize: 0x8 }
  - { offsetInCU: 0xDFC7, offset: 0xDFC7, size: 0x8, addend: 0x0, symName: __ZNKSt3__19basic_iosIcNS_11char_traitsIcEEE5widenB7v160006Ec, symObjAddr: 0x7D84, symBinAddr: 0x10000AE80, symSize: 0x8C }
  - { offsetInCU: 0xE034, offset: 0xE034, size: 0x8, addend: 0x0, symName: __ZNKSt3__15ctypeIcE5widenB7v160006Ec, symObjAddr: 0x7E3C, symBinAddr: 0x10000AF38, symSize: 0x38 }
  - { offsetInCU: 0xE067, offset: 0xE067, size: 0x8, addend: 0x0, symName: __ZNSt3__18ios_base8setstateB7v160006Ej, symObjAddr: 0x7E74, symBinAddr: 0x10000AF70, symSize: 0x34 }
  - { offsetInCU: 0xE09D, offset: 0xE09D, size: 0x8, addend: 0x0, symName: __ZNKSt3__112basic_stringIcNS_11char_traitsIcEENS_9allocatorIcEEE13__get_pointerB7v160006Ev, symObjAddr: 0x7EBC, symBinAddr: 0x10000AFB8, symSize: 0x54 }
  - { offsetInCU: 0xE0C2, offset: 0xE0C2, size: 0x8, addend: 0x0, symName: __ZNKSt3__112basic_stringIcNS_11char_traitsIcEENS_9allocatorIcEEE18__get_long_pointerB7v160006Ev, symObjAddr: 0x7F10, symBinAddr: 0x10000B00C, symSize: 0x28 }
  - { offsetInCU: 0xE0E7, offset: 0xE0E7, size: 0x8, addend: 0x0, symName: __ZNKSt3__112basic_stringIcNS_11char_traitsIcEENS_9allocatorIcEEE19__get_short_pointerB7v160006Ev, symObjAddr: 0x7F38, symBinAddr: 0x10000B034, symSize: 0x28 }
  - { offsetInCU: 0xE10C, offset: 0xE10C, size: 0x8, addend: 0x0, symName: __ZNSt3__114pointer_traitsIPKcE10pointer_toB7v160006ERS1_, symObjAddr: 0x7F60, symBinAddr: 0x10000B05C, symSize: 0x14 }
  - { offsetInCU: 0xE12F, offset: 0xE12F, size: 0x8, addend: 0x0, symName: __ZNKSt3__112basic_stringIcNS_11char_traitsIcEENS_9allocatorIcEEE15__get_long_sizeB7v160006Ev, symObjAddr: 0x7F74, symBinAddr: 0x10000B070, symSize: 0x28 }
  - { offsetInCU: 0xE154, offset: 0xE154, size: 0x8, addend: 0x0, symName: __ZNKSt3__112basic_stringIcNS_11char_traitsIcEENS_9allocatorIcEEE16__get_short_sizeB7v160006Ev, symObjAddr: 0x7F9C, symBinAddr: 0x10000B098, symSize: 0x34 }
...
